
.//Obj/wujian100_open-hello_world.elf:     file format elf32-littleriscv


Disassembly of section .text:

00000000 <Reset_Handler>:
    .globl  Reset_Handler
    .type   Reset_Handler, %function
Reset_Handler:
.option push
.option norelax
    la      gp, __global_pointer$
       0:	20000197          	auipc	gp,0x20000
       4:	4e818193          	addi	gp,gp,1256 # 200004e8 <_impure_ptr>
.option pop
    la      a0, Default_Handler
       8:	00000517          	auipc	a0,0x0
       c:	1b850513          	addi	a0,a0,440 # 1c0 <Default_Handler>
    ori     a0, a0, 3
      10:	00356513          	ori	a0,a0,3
    csrw    mtvec, a0
      14:	30551073          	csrw	mtvec,a0

    la      a0, __Vectors
      18:	b1818513          	addi	a0,gp,-1256 # 20000000 <__Vectors>
    csrw    mtvt, a0
      1c:	30751073          	csrw	mtvt,a0

    la      sp, g_top_irqstack
      20:	20001117          	auipc	sp,0x20001
      24:	4f410113          	addi	sp,sp,1268 # 20001514 <g_top_irqstack>

    /* Load data section */
    la      a0, __erodata
      28:	00006517          	auipc	a0,0x6
      2c:	8f050513          	addi	a0,a0,-1808 # 5918 <__ctor_end__>
    la      a1, __data_start__
      30:	b1818593          	addi	a1,gp,-1256 # 20000000 <__Vectors>
    la      a2, __data_end__
      34:	00818613          	addi	a2,gp,8 # 200004f0 <errno>
    bgeu    a1, a2, 2f
      38:	00c5fa63          	bgeu	a1,a2,4c <Reset_Handler+0x4c>
1:
    lw      t0, (a0)
      3c:	00052283          	lw	t0,0(a0)
    sw      t0, (a1)
      40:	0055a023          	sw	t0,0(a1)
    addi    a0, a0, 4
      44:	0511                	addi	a0,a0,4
    addi    a1, a1, 4
      46:	0591                	addi	a1,a1,4
    bltu    a1, a2, 1b
      48:	fec5eae3          	bltu	a1,a2,3c <Reset_Handler+0x3c>
2:

    /* Clear bss section */
    la      a0, __bss_start__
      4c:	00818513          	addi	a0,gp,8 # 200004f0 <errno>
    la      a1, __bss_end__
      50:	20002597          	auipc	a1,0x20002
      54:	ca458593          	addi	a1,a1,-860 # 20001cf4 <__bss_end__>
    bgeu    a0, a1, 2f
      58:	00b57763          	bgeu	a0,a1,66 <Reset_Handler+0x66>
1:
    sw      zero, (a0)
      5c:	00052023          	sw	zero,0(a0)
    addi    a0, a0, 4
      60:	0511                	addi	a0,a0,4
    bltu    a0, a1, 1b
      62:	feb56de3          	bltu	a0,a1,5c <Reset_Handler+0x5c>
2:

#ifndef __NO_SYSTEM_INIT
    jal     SystemInit
      66:	165030ef          	jal	ra,39ca <SystemInit>
#endif

#ifndef __NO_BOARD_INIT
    jal     board_init
      6a:	3cd020ef          	jal	ra,2c36 <board_init>
#endif

    jal     main
      6e:	481030ef          	jal	ra,3cee <main>

00000072 <__exit>:

    .size   Reset_Handler, . - Reset_Handler

__exit:
    j      __exit
      72:	a001                	j	72 <__exit>
	...

00000080 <Default_IRQHandler>:
    .align  2
    .global Default_IRQHandler
    .weak   Default_IRQHandler
    .type   Default_IRQHandler, %function
Default_IRQHandler:
    addi    sp, sp, -48
      80:	7179                	addi	sp,sp,-48
    sw      t0, 4(sp)
      82:	c216                	sw	t0,4(sp)
    sw      t1, 8(sp)
      84:	c41a                	sw	t1,8(sp)
    csrr    t0, mepc
      86:	341022f3          	csrr	t0,mepc
    csrr    t1, mcause
      8a:	34202373          	csrr	t1,mcause
    sw      t1, 40(sp)
      8e:	d41a                	sw	t1,40(sp)
    sw      t0, 44(sp)
      90:	d616                	sw	t0,44(sp)
    csrs    mstatus, 8
      92:	30046073          	csrsi	mstatus,8

    sw      ra, 0(sp)
      96:	c006                	sw	ra,0(sp)
    sw      t2, 12(sp)
      98:	c61e                	sw	t2,12(sp)
    sw      a0, 16(sp)
      9a:	c82a                	sw	a0,16(sp)
    sw      a1, 20(sp)
      9c:	ca2e                	sw	a1,20(sp)
    sw      a2, 24(sp)
      9e:	cc32                	sw	a2,24(sp)
    sw      a3, 28(sp)
      a0:	ce36                	sw	a3,28(sp)
    sw      a4, 32(sp)
      a2:	d03a                	sw	a4,32(sp)
    sw      a5, 36(sp)
      a4:	d23e                	sw	a5,36(sp)

    andi    t1, t1, 0x3FF
      a6:	3ff37313          	andi	t1,t1,1023
    slli    t1, t1, 2
      aa:	030a                	slli	t1,t1,0x2

    la      t0, g_irqvector
      ac:	20002297          	auipc	t0,0x20002
      b0:	a4028293          	addi	t0,t0,-1472 # 20001aec <g_irqvector>
    add     t0, t0, t1
      b4:	929a                	add	t0,t0,t1
    lw      t2, (t0)
      b6:	0002a383          	lw	t2,0(t0)
    jalr    t2
      ba:	9382                	jalr	t2

    csrc    mstatus, 8
      bc:	30047073          	csrci	mstatus,8

    lw      a1, 40(sp)
      c0:	55a2                	lw	a1,40(sp)
    andi    a0, a1, 0x3FF
      c2:	3ff5f513          	andi	a0,a1,1023

    /* clear pending */
    li      a2, 0xE000E100
      c6:	e000e637          	lui	a2,0xe000e
      ca:	10060613          	addi	a2,a2,256 # e000e100 <__heap_end+0xbffde100>
    add     a2, a2, a0
      ce:	962a                	add	a2,a2,a0
    lb      a3, 0(a2)
      d0:	00060683          	lb	a3,0(a2)
    li      a4, 1
      d4:	4705                	li	a4,1
    not     a4, a4
      d6:	fff74713          	not	a4,a4
    and     a5, a4, a3
      da:	00d777b3          	and	a5,a4,a3
    sb      a5, 0(a2)
      de:	00f60023          	sb	a5,0(a2)

    li      t0, MSTATUS_PRV1
      e2:	6289                	lui	t0,0x2
      e4:	88028293          	addi	t0,t0,-1920 # 1880 <__muldf3+0x25c>
    csrs    mstatus, t0
      e8:	3002a073          	csrs	mstatus,t0
    csrw    mcause, a1
      ec:	34259073          	csrw	mcause,a1
    lw      t0, 44(sp)
      f0:	52b2                	lw	t0,44(sp)
    csrw    mepc, t0
      f2:	34129073          	csrw	mepc,t0
    lw      ra, 0(sp)
      f6:	4082                	lw	ra,0(sp)
    lw      t0, 4(sp)
      f8:	4292                	lw	t0,4(sp)
    lw      t1, 8(sp)
      fa:	4322                	lw	t1,8(sp)
    lw      t2, 12(sp)
      fc:	43b2                	lw	t2,12(sp)
    lw      a0, 16(sp)
      fe:	4542                	lw	a0,16(sp)
    lw      a1, 20(sp)
     100:	45d2                	lw	a1,20(sp)
    lw      a2, 24(sp)
     102:	4662                	lw	a2,24(sp)
    lw      a3, 28(sp)
     104:	46f2                	lw	a3,28(sp)
    lw      a4, 32(sp)
     106:	5702                	lw	a4,32(sp)
    lw      a5, 36(sp)
     108:	5792                	lw	a5,36(sp)

    addi    sp, sp, 48
     10a:	6145                	addi	sp,sp,48
    mret
     10c:	30200073          	mret

00000110 <trap>:
    .align  2
    .global trap
    .type   trap, %function
trap:
    /* Check for interrupt */
    addi    sp, sp, -4
     110:	1171                	addi	sp,sp,-4
    sw      t0, 0x0(sp)
     112:	c016                	sw	t0,0(sp)
    csrr    t0, mcause
     114:	342022f3          	csrr	t0,mcause

    blt     t0, x0, .Lirq
     118:	0602c463          	bltz	t0,180 <trap+0x70>

    addi    sp, sp, 4
     11c:	0111                	addi	sp,sp,4

    la      t0, g_trap_sp
     11e:	20001297          	auipc	t0,0x20001
     122:	5f628293          	addi	t0,t0,1526 # 20001714 <g_trap_sp>
    addi    t0, t0, -68
     126:	fbc28293          	addi	t0,t0,-68
    sw      x1, 0(t0)
     12a:	0012a023          	sw	ra,0(t0)
    sw      x2, 4(t0)
     12e:	0022a223          	sw	sp,4(t0)
    sw      x3, 8(t0)
     132:	0032a423          	sw	gp,8(t0)
    sw      x4, 12(t0)
     136:	0042a623          	sw	tp,12(t0)
    sw      x6, 20(t0)
     13a:	0062aa23          	sw	t1,20(t0)
    sw      x7, 24(t0)
     13e:	0072ac23          	sw	t2,24(t0)
    sw      x8, 28(t0)
     142:	0082ae23          	sw	s0,28(t0)
    sw      x9, 32(t0)
     146:	0292a023          	sw	s1,32(t0)
    sw      x10, 36(t0)
     14a:	02a2a223          	sw	a0,36(t0)
    sw      x11, 40(t0)
     14e:	02b2a423          	sw	a1,40(t0)
    sw      x12, 44(t0)
     152:	02c2a623          	sw	a2,44(t0)
    sw      x13, 48(t0)
     156:	02d2a823          	sw	a3,48(t0)
    sw      x14, 52(t0)
     15a:	02e2aa23          	sw	a4,52(t0)
    sw      x15, 56(t0)
     15e:	02f2ac23          	sw	a5,56(t0)
    csrr    a0, mepc
     162:	34102573          	csrr	a0,mepc
    sw      a0, 60(t0)
     166:	02a2ae23          	sw	a0,60(t0)
    csrr    a0, mstatus
     16a:	30002573          	csrr	a0,mstatus
    sw      a0, 64(t0)
     16e:	04a2a023          	sw	a0,64(t0)

    mv      a0, t0
     172:	8516                	mv	a0,t0
    lw      t0, -4(sp)
     174:	ffc12283          	lw	t0,-4(sp)
    mv      sp, a0
     178:	812a                	mv	sp,a0
    sw      t0, 16(sp)
     17a:	c816                	sw	t0,16(sp)

    jal     trap_c
     17c:	0ad030ef          	jal	ra,3a28 <trap_c>


.Lirq:
    lw      t0, 0x0(sp)
     180:	4282                	lw	t0,0(sp)
    addi    sp, sp, 4
     182:	0111                	addi	sp,sp,4
    j       Default_IRQHandler
     184:	efdff06f          	j	80 <Default_IRQHandler>
     188:	00000013          	nop
     18c:	00000013          	nop
     190:	00000013          	nop
     194:	00000013          	nop
     198:	00000013          	nop
     19c:	00000013          	nop
     1a0:	00000013          	nop
     1a4:	00000013          	nop
     1a8:	00000013          	nop
     1ac:	00000013          	nop
     1b0:	00000013          	nop
     1b4:	00000013          	nop
     1b8:	00000013          	nop
     1bc:	00000013          	nop

000001c0 <Default_Handler>:
    .align  6
    .weak   Default_Handler
    .global Default_Handler
    .type   Default_Handler, %function
Default_Handler:
    j      trap
     1c0:	bf81                	j	110 <trap>
	...

000001f6 <__udivdi3>:
     1f6:	1161                	addi	sp,sp,-8
     1f8:	c222                	sw	s0,4(sp)
     1fa:	c026                	sw	s1,0(sp)
     1fc:	82aa                	mv	t0,a0
     1fe:	87ae                	mv	a5,a1
     200:	20069e63          	bnez	a3,41c <__udivdi3+0x226>
     204:	85b6                	mv	a1,a3
     206:	8332                	mv	t1,a2
     208:	83aa                	mv	t2,a0
     20a:	00005697          	auipc	a3,0x5
     20e:	a2e68693          	addi	a3,a3,-1490 # 4c38 <__clz_tab>
     212:	0cc7f263          	bgeu	a5,a2,2d6 <__udivdi3+0xe0>
     216:	6741                	lui	a4,0x10
     218:	853e                	mv	a0,a5
     21a:	0ae67763          	bgeu	a2,a4,2c8 <__udivdi3+0xd2>
     21e:	0ff00713          	li	a4,255
     222:	00c73733          	sltu	a4,a4,a2
     226:	070e                	slli	a4,a4,0x3
     228:	00e655b3          	srl	a1,a2,a4
     22c:	96ae                	add	a3,a3,a1
     22e:	0006c683          	lbu	a3,0(a3)
     232:	9736                	add	a4,a4,a3
     234:	02000693          	li	a3,32
     238:	40e68433          	sub	s0,a3,a4
     23c:	00e68c63          	beq	a3,a4,254 <__udivdi3+0x5e>
     240:	008796b3          	sll	a3,a5,s0
     244:	00e2d733          	srl	a4,t0,a4
     248:	00861333          	sll	t1,a2,s0
     24c:	00d76533          	or	a0,a4,a3
     250:	008293b3          	sll	t2,t0,s0
     254:	01035593          	srli	a1,t1,0x10
     258:	02b556b3          	divu	a3,a0,a1
     25c:	01031613          	slli	a2,t1,0x10
     260:	8241                	srli	a2,a2,0x10
     262:	0103d793          	srli	a5,t2,0x10
     266:	02b57733          	remu	a4,a0,a1
     26a:	8536                	mv	a0,a3
     26c:	02d602b3          	mul	t0,a2,a3
     270:	0742                	slli	a4,a4,0x10
     272:	8fd9                	or	a5,a5,a4
     274:	0057fc63          	bgeu	a5,t0,28c <__udivdi3+0x96>
     278:	979a                	add	a5,a5,t1
     27a:	fff68513          	addi	a0,a3,-1
     27e:	0067e763          	bltu	a5,t1,28c <__udivdi3+0x96>
     282:	0057f563          	bgeu	a5,t0,28c <__udivdi3+0x96>
     286:	ffe68513          	addi	a0,a3,-2
     28a:	979a                	add	a5,a5,t1
     28c:	405787b3          	sub	a5,a5,t0
     290:	02b7f733          	remu	a4,a5,a1
     294:	03c2                	slli	t2,t2,0x10
     296:	0103d393          	srli	t2,t2,0x10
     29a:	02b7d7b3          	divu	a5,a5,a1
     29e:	0742                	slli	a4,a4,0x10
     2a0:	007763b3          	or	t2,a4,t2
     2a4:	02f60633          	mul	a2,a2,a5
     2a8:	873e                	mv	a4,a5
     2aa:	00c3fb63          	bgeu	t2,a2,2c0 <__udivdi3+0xca>
     2ae:	939a                	add	t2,t2,t1
     2b0:	fff78713          	addi	a4,a5,-1
     2b4:	0063e663          	bltu	t2,t1,2c0 <__udivdi3+0xca>
     2b8:	00c3f463          	bgeu	t2,a2,2c0 <__udivdi3+0xca>
     2bc:	ffe78713          	addi	a4,a5,-2
     2c0:	0542                	slli	a0,a0,0x10
     2c2:	8d59                	or	a0,a0,a4
     2c4:	4581                	li	a1,0
     2c6:	a855                	j	37a <__udivdi3+0x184>
     2c8:	010005b7          	lui	a1,0x1000
     2cc:	4741                	li	a4,16
     2ce:	f4b66de3          	bltu	a2,a1,228 <__udivdi3+0x32>
     2d2:	4761                	li	a4,24
     2d4:	bf91                	j	228 <__udivdi3+0x32>
     2d6:	e601                	bnez	a2,2de <__udivdi3+0xe8>
     2d8:	4705                	li	a4,1
     2da:	02c75333          	divu	t1,a4,a2
     2de:	6741                	lui	a4,0x10
     2e0:	0ae37163          	bgeu	t1,a4,382 <__udivdi3+0x18c>
     2e4:	0ff00713          	li	a4,255
     2e8:	00677363          	bgeu	a4,t1,2ee <__udivdi3+0xf8>
     2ec:	45a1                	li	a1,8
     2ee:	00b35733          	srl	a4,t1,a1
     2f2:	96ba                	add	a3,a3,a4
     2f4:	0006c703          	lbu	a4,0(a3)
     2f8:	02000693          	li	a3,32
     2fc:	972e                	add	a4,a4,a1
     2fe:	40e68533          	sub	a0,a3,a4
     302:	08e69763          	bne	a3,a4,390 <__udivdi3+0x19a>
     306:	406787b3          	sub	a5,a5,t1
     30a:	4585                	li	a1,1
     30c:	01035293          	srli	t0,t1,0x10
     310:	01031613          	slli	a2,t1,0x10
     314:	8241                	srli	a2,a2,0x10
     316:	0103d713          	srli	a4,t2,0x10
     31a:	0257f6b3          	remu	a3,a5,t0
     31e:	0257d7b3          	divu	a5,a5,t0
     322:	06c2                	slli	a3,a3,0x10
     324:	8f55                	or	a4,a4,a3
     326:	02f60433          	mul	s0,a2,a5
     32a:	853e                	mv	a0,a5
     32c:	00877c63          	bgeu	a4,s0,344 <__udivdi3+0x14e>
     330:	971a                	add	a4,a4,t1
     332:	fff78513          	addi	a0,a5,-1
     336:	00676763          	bltu	a4,t1,344 <__udivdi3+0x14e>
     33a:	00877563          	bgeu	a4,s0,344 <__udivdi3+0x14e>
     33e:	ffe78513          	addi	a0,a5,-2
     342:	971a                	add	a4,a4,t1
     344:	8f01                	sub	a4,a4,s0
     346:	025777b3          	remu	a5,a4,t0
     34a:	03c2                	slli	t2,t2,0x10
     34c:	0103d393          	srli	t2,t2,0x10
     350:	02575733          	divu	a4,a4,t0
     354:	07c2                	slli	a5,a5,0x10
     356:	0077e3b3          	or	t2,a5,t2
     35a:	02e60633          	mul	a2,a2,a4
     35e:	87ba                	mv	a5,a4
     360:	00c3fb63          	bgeu	t2,a2,376 <__udivdi3+0x180>
     364:	939a                	add	t2,t2,t1
     366:	fff70793          	addi	a5,a4,-1 # ffff <__ctor_end__+0xa6e7>
     36a:	0063e663          	bltu	t2,t1,376 <__udivdi3+0x180>
     36e:	00c3f463          	bgeu	t2,a2,376 <__udivdi3+0x180>
     372:	ffe70793          	addi	a5,a4,-2
     376:	0542                	slli	a0,a0,0x10
     378:	8d5d                	or	a0,a0,a5
     37a:	4412                	lw	s0,4(sp)
     37c:	4482                	lw	s1,0(sp)
     37e:	0121                	addi	sp,sp,8
     380:	8082                	ret
     382:	01000737          	lui	a4,0x1000
     386:	45c1                	li	a1,16
     388:	f6e363e3          	bltu	t1,a4,2ee <__udivdi3+0xf8>
     38c:	45e1                	li	a1,24
     38e:	b785                	j	2ee <__udivdi3+0xf8>
     390:	00a31333          	sll	t1,t1,a0
     394:	00e7d6b3          	srl	a3,a5,a4
     398:	00a293b3          	sll	t2,t0,a0
     39c:	00a797b3          	sll	a5,a5,a0
     3a0:	01035513          	srli	a0,t1,0x10
     3a4:	00e2d733          	srl	a4,t0,a4
     3a8:	02a6d2b3          	divu	t0,a3,a0
     3ac:	00f76633          	or	a2,a4,a5
     3b0:	01031793          	slli	a5,t1,0x10
     3b4:	83c1                	srli	a5,a5,0x10
     3b6:	01065593          	srli	a1,a2,0x10
     3ba:	02a6f733          	remu	a4,a3,a0
     3be:	025786b3          	mul	a3,a5,t0
     3c2:	0742                	slli	a4,a4,0x10
     3c4:	8f4d                	or	a4,a4,a1
     3c6:	8596                	mv	a1,t0
     3c8:	00d77c63          	bgeu	a4,a3,3e0 <__udivdi3+0x1ea>
     3cc:	971a                	add	a4,a4,t1
     3ce:	fff28593          	addi	a1,t0,-1
     3d2:	00676763          	bltu	a4,t1,3e0 <__udivdi3+0x1ea>
     3d6:	00d77563          	bgeu	a4,a3,3e0 <__udivdi3+0x1ea>
     3da:	ffe28593          	addi	a1,t0,-2
     3de:	971a                	add	a4,a4,t1
     3e0:	40d706b3          	sub	a3,a4,a3
     3e4:	02a6f733          	remu	a4,a3,a0
     3e8:	02a6d6b3          	divu	a3,a3,a0
     3ec:	0742                	slli	a4,a4,0x10
     3ee:	02d78533          	mul	a0,a5,a3
     3f2:	01061793          	slli	a5,a2,0x10
     3f6:	83c1                	srli	a5,a5,0x10
     3f8:	8fd9                	or	a5,a5,a4
     3fa:	8736                	mv	a4,a3
     3fc:	00a7fc63          	bgeu	a5,a0,414 <__udivdi3+0x21e>
     400:	979a                	add	a5,a5,t1
     402:	fff68713          	addi	a4,a3,-1
     406:	0067e763          	bltu	a5,t1,414 <__udivdi3+0x21e>
     40a:	00a7f563          	bgeu	a5,a0,414 <__udivdi3+0x21e>
     40e:	ffe68713          	addi	a4,a3,-2
     412:	979a                	add	a5,a5,t1
     414:	05c2                	slli	a1,a1,0x10
     416:	8f89                	sub	a5,a5,a0
     418:	8dd9                	or	a1,a1,a4
     41a:	bdcd                	j	30c <__udivdi3+0x116>
     41c:	12d5ef63          	bltu	a1,a3,55a <__udivdi3+0x364>
     420:	6741                	lui	a4,0x10
     422:	02e6ff63          	bgeu	a3,a4,460 <__udivdi3+0x26a>
     426:	0ff00713          	li	a4,255
     42a:	00d73733          	sltu	a4,a4,a3
     42e:	070e                	slli	a4,a4,0x3
     430:	00e6d533          	srl	a0,a3,a4
     434:	00005597          	auipc	a1,0x5
     438:	80458593          	addi	a1,a1,-2044 # 4c38 <__clz_tab>
     43c:	95aa                	add	a1,a1,a0
     43e:	0005c583          	lbu	a1,0(a1)
     442:	02000513          	li	a0,32
     446:	972e                	add	a4,a4,a1
     448:	40e505b3          	sub	a1,a0,a4
     44c:	02e51163          	bne	a0,a4,46e <__udivdi3+0x278>
     450:	4505                	li	a0,1
     452:	f2f6e4e3          	bltu	a3,a5,37a <__udivdi3+0x184>
     456:	00c2b633          	sltu	a2,t0,a2
     45a:	00164513          	xori	a0,a2,1
     45e:	bf31                	j	37a <__udivdi3+0x184>
     460:	010005b7          	lui	a1,0x1000
     464:	4741                	li	a4,16
     466:	fcb6e5e3          	bltu	a3,a1,430 <__udivdi3+0x23a>
     46a:	4761                	li	a4,24
     46c:	b7d1                	j	430 <__udivdi3+0x23a>
     46e:	00e65333          	srl	t1,a2,a4
     472:	00b696b3          	sll	a3,a3,a1
     476:	00d36333          	or	t1,t1,a3
     47a:	00e7d3b3          	srl	t2,a5,a4
     47e:	01035413          	srli	s0,t1,0x10
     482:	0283f6b3          	remu	a3,t2,s0
     486:	01031513          	slli	a0,t1,0x10
     48a:	8141                	srli	a0,a0,0x10
     48c:	00e2d733          	srl	a4,t0,a4
     490:	00b797b3          	sll	a5,a5,a1
     494:	8fd9                	or	a5,a5,a4
     496:	0107d713          	srli	a4,a5,0x10
     49a:	00b61633          	sll	a2,a2,a1
     49e:	0283d3b3          	divu	t2,t2,s0
     4a2:	06c2                	slli	a3,a3,0x10
     4a4:	8ed9                	or	a3,a3,a4
     4a6:	027504b3          	mul	s1,a0,t2
     4aa:	871e                	mv	a4,t2
     4ac:	0096fc63          	bgeu	a3,s1,4c4 <__udivdi3+0x2ce>
     4b0:	969a                	add	a3,a3,t1
     4b2:	fff38713          	addi	a4,t2,-1
     4b6:	0066e763          	bltu	a3,t1,4c4 <__udivdi3+0x2ce>
     4ba:	0096f563          	bgeu	a3,s1,4c4 <__udivdi3+0x2ce>
     4be:	ffe38713          	addi	a4,t2,-2
     4c2:	969a                	add	a3,a3,t1
     4c4:	8e85                	sub	a3,a3,s1
     4c6:	0286f3b3          	remu	t2,a3,s0
     4ca:	07c2                	slli	a5,a5,0x10
     4cc:	83c1                	srli	a5,a5,0x10
     4ce:	0286d6b3          	divu	a3,a3,s0
     4d2:	03c2                	slli	t2,t2,0x10
     4d4:	00f3e7b3          	or	a5,t2,a5
     4d8:	02d50533          	mul	a0,a0,a3
     4dc:	83b6                	mv	t2,a3
     4de:	00a7fc63          	bgeu	a5,a0,4f6 <__udivdi3+0x300>
     4e2:	979a                	add	a5,a5,t1
     4e4:	fff68393          	addi	t2,a3,-1
     4e8:	0067e763          	bltu	a5,t1,4f6 <__udivdi3+0x300>
     4ec:	00a7f563          	bgeu	a5,a0,4f6 <__udivdi3+0x300>
     4f0:	ffe68393          	addi	t2,a3,-2
     4f4:	979a                	add	a5,a5,t1
     4f6:	8f89                	sub	a5,a5,a0
     4f8:	6441                	lui	s0,0x10
     4fa:	01071513          	slli	a0,a4,0x10
     4fe:	00756533          	or	a0,a0,t2
     502:	fff40713          	addi	a4,s0,-1 # ffff <__ctor_end__+0xa6e7>
     506:	00e573b3          	and	t2,a0,a4
     50a:	01055693          	srli	a3,a0,0x10
     50e:	8f71                	and	a4,a4,a2
     510:	8241                	srli	a2,a2,0x10
     512:	02e38333          	mul	t1,t2,a4
     516:	02e68733          	mul	a4,a3,a4
     51a:	02c383b3          	mul	t2,t2,a2
     51e:	02c686b3          	mul	a3,a3,a2
     522:	93ba                	add	t2,t2,a4
     524:	01035613          	srli	a2,t1,0x10
     528:	961e                	add	a2,a2,t2
     52a:	00e67363          	bgeu	a2,a4,530 <__udivdi3+0x33a>
     52e:	96a2                	add	a3,a3,s0
     530:	01065713          	srli	a4,a2,0x10
     534:	96ba                	add	a3,a3,a4
     536:	02d7e063          	bltu	a5,a3,556 <__udivdi3+0x360>
     53a:	d8d795e3          	bne	a5,a3,2c4 <__udivdi3+0xce>
     53e:	67c1                	lui	a5,0x10
     540:	17fd                	addi	a5,a5,-1
     542:	8e7d                	and	a2,a2,a5
     544:	0642                	slli	a2,a2,0x10
     546:	00f37333          	and	t1,t1,a5
     54a:	00b292b3          	sll	t0,t0,a1
     54e:	961a                	add	a2,a2,t1
     550:	4581                	li	a1,0
     552:	e2c2f4e3          	bgeu	t0,a2,37a <__udivdi3+0x184>
     556:	157d                	addi	a0,a0,-1
     558:	b3b5                	j	2c4 <__udivdi3+0xce>
     55a:	4581                	li	a1,0
     55c:	4501                	li	a0,0
     55e:	bd31                	j	37a <__udivdi3+0x184>

00000560 <__umoddi3>:
     560:	1151                	addi	sp,sp,-12
     562:	c422                	sw	s0,8(sp)
     564:	c226                	sw	s1,4(sp)
     566:	87aa                	mv	a5,a0
     568:	872e                	mv	a4,a1
     56a:	1c069a63          	bnez	a3,73e <__umoddi3+0x1de>
     56e:	8336                	mv	t1,a3
     570:	8432                	mv	s0,a2
     572:	00004697          	auipc	a3,0x4
     576:	6c668693          	addi	a3,a3,1734 # 4c38 <__clz_tab>
     57a:	0ac5fa63          	bgeu	a1,a2,62e <__umoddi3+0xce>
     57e:	62c1                	lui	t0,0x10
     580:	0a567063          	bgeu	a2,t0,620 <__umoddi3+0xc0>
     584:	0ff00293          	li	t0,255
     588:	00c2f363          	bgeu	t0,a2,58e <__umoddi3+0x2e>
     58c:	4321                	li	t1,8
     58e:	006652b3          	srl	t0,a2,t1
     592:	9696                	add	a3,a3,t0
     594:	0006c683          	lbu	a3,0(a3)
     598:	9336                	add	t1,t1,a3
     59a:	02000693          	li	a3,32
     59e:	406682b3          	sub	t0,a3,t1
     5a2:	00668c63          	beq	a3,t1,5ba <__umoddi3+0x5a>
     5a6:	005595b3          	sll	a1,a1,t0
     5aa:	00655333          	srl	t1,a0,t1
     5ae:	00561433          	sll	s0,a2,t0
     5b2:	00b36733          	or	a4,t1,a1
     5b6:	005517b3          	sll	a5,a0,t0
     5ba:	01045393          	srli	t2,s0,0x10
     5be:	02777633          	remu	a2,a4,t2
     5c2:	01041513          	slli	a0,s0,0x10
     5c6:	8141                	srli	a0,a0,0x10
     5c8:	0107d693          	srli	a3,a5,0x10
     5cc:	02775733          	divu	a4,a4,t2
     5d0:	0642                	slli	a2,a2,0x10
     5d2:	8ed1                	or	a3,a3,a2
     5d4:	02e50733          	mul	a4,a0,a4
     5d8:	00e6f863          	bgeu	a3,a4,5e8 <__umoddi3+0x88>
     5dc:	96a2                	add	a3,a3,s0
     5de:	0086e563          	bltu	a3,s0,5e8 <__umoddi3+0x88>
     5e2:	00e6f363          	bgeu	a3,a4,5e8 <__umoddi3+0x88>
     5e6:	96a2                	add	a3,a3,s0
     5e8:	8e99                	sub	a3,a3,a4
     5ea:	0276f733          	remu	a4,a3,t2
     5ee:	07c2                	slli	a5,a5,0x10
     5f0:	83c1                	srli	a5,a5,0x10
     5f2:	0276d6b3          	divu	a3,a3,t2
     5f6:	02d506b3          	mul	a3,a0,a3
     5fa:	01071513          	slli	a0,a4,0x10
     5fe:	8fc9                	or	a5,a5,a0
     600:	00d7f863          	bgeu	a5,a3,610 <__umoddi3+0xb0>
     604:	97a2                	add	a5,a5,s0
     606:	0087e563          	bltu	a5,s0,610 <__umoddi3+0xb0>
     60a:	00d7f363          	bgeu	a5,a3,610 <__umoddi3+0xb0>
     60e:	97a2                	add	a5,a5,s0
     610:	8f95                	sub	a5,a5,a3
     612:	0057d533          	srl	a0,a5,t0
     616:	4581                	li	a1,0
     618:	4422                	lw	s0,8(sp)
     61a:	4492                	lw	s1,4(sp)
     61c:	0131                	addi	sp,sp,12
     61e:	8082                	ret
     620:	010002b7          	lui	t0,0x1000
     624:	4341                	li	t1,16
     626:	f65664e3          	bltu	a2,t0,58e <__umoddi3+0x2e>
     62a:	4361                	li	t1,24
     62c:	b78d                	j	58e <__umoddi3+0x2e>
     62e:	e601                	bnez	a2,636 <__umoddi3+0xd6>
     630:	4705                	li	a4,1
     632:	02c75433          	divu	s0,a4,a2
     636:	6741                	lui	a4,0x10
     638:	08e47163          	bgeu	s0,a4,6ba <__umoddi3+0x15a>
     63c:	0ff00713          	li	a4,255
     640:	00877363          	bgeu	a4,s0,646 <__umoddi3+0xe6>
     644:	4321                	li	t1,8
     646:	00645733          	srl	a4,s0,t1
     64a:	96ba                	add	a3,a3,a4
     64c:	0006c603          	lbu	a2,0(a3)
     650:	02000713          	li	a4,32
     654:	9332                	add	t1,t1,a2
     656:	406702b3          	sub	t0,a4,t1
     65a:	06671763          	bne	a4,t1,6c8 <__umoddi3+0x168>
     65e:	8d81                	sub	a1,a1,s0
     660:	01045693          	srli	a3,s0,0x10
     664:	01041513          	slli	a0,s0,0x10
     668:	8141                	srli	a0,a0,0x10
     66a:	0107d613          	srli	a2,a5,0x10
     66e:	02d5f733          	remu	a4,a1,a3
     672:	02d5d5b3          	divu	a1,a1,a3
     676:	0742                	slli	a4,a4,0x10
     678:	8f51                	or	a4,a4,a2
     67a:	02b505b3          	mul	a1,a0,a1
     67e:	00b77863          	bgeu	a4,a1,68e <__umoddi3+0x12e>
     682:	9722                	add	a4,a4,s0
     684:	00876563          	bltu	a4,s0,68e <__umoddi3+0x12e>
     688:	00b77363          	bgeu	a4,a1,68e <__umoddi3+0x12e>
     68c:	9722                	add	a4,a4,s0
     68e:	40b705b3          	sub	a1,a4,a1
     692:	02d5f733          	remu	a4,a1,a3
     696:	07c2                	slli	a5,a5,0x10
     698:	83c1                	srli	a5,a5,0x10
     69a:	02d5d5b3          	divu	a1,a1,a3
     69e:	0742                	slli	a4,a4,0x10
     6a0:	8fd9                	or	a5,a5,a4
     6a2:	02b50533          	mul	a0,a0,a1
     6a6:	00a7f863          	bgeu	a5,a0,6b6 <__umoddi3+0x156>
     6aa:	97a2                	add	a5,a5,s0
     6ac:	0087e563          	bltu	a5,s0,6b6 <__umoddi3+0x156>
     6b0:	00a7f363          	bgeu	a5,a0,6b6 <__umoddi3+0x156>
     6b4:	97a2                	add	a5,a5,s0
     6b6:	8f89                	sub	a5,a5,a0
     6b8:	bfa9                	j	612 <__umoddi3+0xb2>
     6ba:	01000737          	lui	a4,0x1000
     6be:	4341                	li	t1,16
     6c0:	f8e463e3          	bltu	s0,a4,646 <__umoddi3+0xe6>
     6c4:	4361                	li	t1,24
     6c6:	b741                	j	646 <__umoddi3+0xe6>
     6c8:	00541433          	sll	s0,s0,t0
     6cc:	0065d6b3          	srl	a3,a1,t1
     6d0:	005517b3          	sll	a5,a0,t0
     6d4:	00655333          	srl	t1,a0,t1
     6d8:	01045513          	srli	a0,s0,0x10
     6dc:	02a6f733          	remu	a4,a3,a0
     6e0:	005595b3          	sll	a1,a1,t0
     6e4:	00b36633          	or	a2,t1,a1
     6e8:	01041593          	slli	a1,s0,0x10
     6ec:	81c1                	srli	a1,a1,0x10
     6ee:	01065313          	srli	t1,a2,0x10
     6f2:	02a6d6b3          	divu	a3,a3,a0
     6f6:	0742                	slli	a4,a4,0x10
     6f8:	00676733          	or	a4,a4,t1
     6fc:	02d586b3          	mul	a3,a1,a3
     700:	00d77863          	bgeu	a4,a3,710 <__umoddi3+0x1b0>
     704:	9722                	add	a4,a4,s0
     706:	00876563          	bltu	a4,s0,710 <__umoddi3+0x1b0>
     70a:	00d77363          	bgeu	a4,a3,710 <__umoddi3+0x1b0>
     70e:	9722                	add	a4,a4,s0
     710:	40d706b3          	sub	a3,a4,a3
     714:	02a6f733          	remu	a4,a3,a0
     718:	02a6d6b3          	divu	a3,a3,a0
     71c:	0742                	slli	a4,a4,0x10
     71e:	02d586b3          	mul	a3,a1,a3
     722:	01061593          	slli	a1,a2,0x10
     726:	81c1                	srli	a1,a1,0x10
     728:	8dd9                	or	a1,a1,a4
     72a:	00d5f863          	bgeu	a1,a3,73a <__umoddi3+0x1da>
     72e:	95a2                	add	a1,a1,s0
     730:	0085e563          	bltu	a1,s0,73a <__umoddi3+0x1da>
     734:	00d5f363          	bgeu	a1,a3,73a <__umoddi3+0x1da>
     738:	95a2                	add	a1,a1,s0
     73a:	8d95                	sub	a1,a1,a3
     73c:	b715                	j	660 <__umoddi3+0x100>
     73e:	ecd5ede3          	bltu	a1,a3,618 <__umoddi3+0xb8>
     742:	6341                	lui	t1,0x10
     744:	0466f563          	bgeu	a3,t1,78e <__umoddi3+0x22e>
     748:	0ff00293          	li	t0,255
     74c:	00d2b333          	sltu	t1,t0,a3
     750:	030e                	slli	t1,t1,0x3
     752:	0066d3b3          	srl	t2,a3,t1
     756:	00004297          	auipc	t0,0x4
     75a:	4e228293          	addi	t0,t0,1250 # 4c38 <__clz_tab>
     75e:	929e                	add	t0,t0,t2
     760:	0002c283          	lbu	t0,0(t0)
     764:	929a                	add	t0,t0,t1
     766:	02000313          	li	t1,32
     76a:	405303b3          	sub	t2,t1,t0
     76e:	02531763          	bne	t1,t0,79c <__umoddi3+0x23c>
     772:	00b6e463          	bltu	a3,a1,77a <__umoddi3+0x21a>
     776:	00c56963          	bltu	a0,a2,788 <__umoddi3+0x228>
     77a:	40c507b3          	sub	a5,a0,a2
     77e:	8d95                	sub	a1,a1,a3
     780:	00f53533          	sltu	a0,a0,a5
     784:	40a58733          	sub	a4,a1,a0
     788:	853e                	mv	a0,a5
     78a:	85ba                	mv	a1,a4
     78c:	b571                	j	618 <__umoddi3+0xb8>
     78e:	010002b7          	lui	t0,0x1000
     792:	4341                	li	t1,16
     794:	fa56efe3          	bltu	a3,t0,752 <__umoddi3+0x1f2>
     798:	4361                	li	t1,24
     79a:	bf65                	j	752 <__umoddi3+0x1f2>
     79c:	007696b3          	sll	a3,a3,t2
     7a0:	00565333          	srl	t1,a2,t0
     7a4:	00d36333          	or	t1,t1,a3
     7a8:	0055d4b3          	srl	s1,a1,t0
     7ac:	01035413          	srli	s0,t1,0x10
     7b0:	00555733          	srl	a4,a0,t0
     7b4:	007517b3          	sll	a5,a0,t2
     7b8:	0284d533          	divu	a0,s1,s0
     7bc:	c03e                	sw	a5,0(sp)
     7be:	007595b3          	sll	a1,a1,t2
     7c2:	8dd9                	or	a1,a1,a4
     7c4:	01031713          	slli	a4,t1,0x10
     7c8:	8341                	srli	a4,a4,0x10
     7ca:	00761633          	sll	a2,a2,t2
     7ce:	0284f7b3          	remu	a5,s1,s0
     7d2:	02a704b3          	mul	s1,a4,a0
     7d6:	01079693          	slli	a3,a5,0x10
     7da:	0105d793          	srli	a5,a1,0x10
     7de:	8fd5                	or	a5,a5,a3
     7e0:	86aa                	mv	a3,a0
     7e2:	0097fc63          	bgeu	a5,s1,7fa <__umoddi3+0x29a>
     7e6:	979a                	add	a5,a5,t1
     7e8:	fff50693          	addi	a3,a0,-1
     7ec:	0067e763          	bltu	a5,t1,7fa <__umoddi3+0x29a>
     7f0:	0097f563          	bgeu	a5,s1,7fa <__umoddi3+0x29a>
     7f4:	ffe50693          	addi	a3,a0,-2
     7f8:	979a                	add	a5,a5,t1
     7fa:	8f85                	sub	a5,a5,s1
     7fc:	0287f533          	remu	a0,a5,s0
     800:	05c2                	slli	a1,a1,0x10
     802:	81c1                	srli	a1,a1,0x10
     804:	0287d433          	divu	s0,a5,s0
     808:	0542                	slli	a0,a0,0x10
     80a:	8dc9                	or	a1,a1,a0
     80c:	02870733          	mul	a4,a4,s0
     810:	87a2                	mv	a5,s0
     812:	00e5fc63          	bgeu	a1,a4,82a <__umoddi3+0x2ca>
     816:	959a                	add	a1,a1,t1
     818:	fff40793          	addi	a5,s0,-1
     81c:	0065e763          	bltu	a1,t1,82a <__umoddi3+0x2ca>
     820:	00e5f563          	bgeu	a1,a4,82a <__umoddi3+0x2ca>
     824:	ffe40793          	addi	a5,s0,-2
     828:	959a                	add	a1,a1,t1
     82a:	06c2                	slli	a3,a3,0x10
     82c:	6441                	lui	s0,0x10
     82e:	8edd                	or	a3,a3,a5
     830:	40e58733          	sub	a4,a1,a4
     834:	fff40593          	addi	a1,s0,-1 # ffff <__ctor_end__+0xa6e7>
     838:	00b6f7b3          	and	a5,a3,a1
     83c:	01065493          	srli	s1,a2,0x10
     840:	82c1                	srli	a3,a3,0x10
     842:	8df1                	and	a1,a1,a2
     844:	02b78533          	mul	a0,a5,a1
     848:	02b685b3          	mul	a1,a3,a1
     84c:	029787b3          	mul	a5,a5,s1
     850:	029686b3          	mul	a3,a3,s1
     854:	97ae                	add	a5,a5,a1
     856:	01055493          	srli	s1,a0,0x10
     85a:	97a6                	add	a5,a5,s1
     85c:	00b7f363          	bgeu	a5,a1,862 <__umoddi3+0x302>
     860:	96a2                	add	a3,a3,s0
     862:	0107d593          	srli	a1,a5,0x10
     866:	96ae                	add	a3,a3,a1
     868:	65c1                	lui	a1,0x10
     86a:	15fd                	addi	a1,a1,-1
     86c:	8fed                	and	a5,a5,a1
     86e:	07c2                	slli	a5,a5,0x10
     870:	8d6d                	and	a0,a0,a1
     872:	953e                	add	a0,a0,a5
     874:	00d76763          	bltu	a4,a3,882 <__umoddi3+0x322>
     878:	00d71d63          	bne	a4,a3,892 <__umoddi3+0x332>
     87c:	4782                	lw	a5,0(sp)
     87e:	00a7fa63          	bgeu	a5,a0,892 <__umoddi3+0x332>
     882:	40c50633          	sub	a2,a0,a2
     886:	00c53533          	sltu	a0,a0,a2
     88a:	932a                	add	t1,t1,a0
     88c:	406686b3          	sub	a3,a3,t1
     890:	8532                	mv	a0,a2
     892:	4782                	lw	a5,0(sp)
     894:	40d706b3          	sub	a3,a4,a3
     898:	40a78533          	sub	a0,a5,a0
     89c:	00a7b5b3          	sltu	a1,a5,a0
     8a0:	40b685b3          	sub	a1,a3,a1
     8a4:	005597b3          	sll	a5,a1,t0
     8a8:	00755533          	srl	a0,a0,t2
     8ac:	8d5d                	or	a0,a0,a5
     8ae:	0075d5b3          	srl	a1,a1,t2
     8b2:	b39d                	j	618 <__umoddi3+0xb8>

000008b4 <__adddf3>:
     8b4:	00100337          	lui	t1,0x100
     8b8:	137d                	addi	t1,t1,-1
     8ba:	1131                	addi	sp,sp,-20
     8bc:	00b377b3          	and	a5,t1,a1
     8c0:	0145d713          	srli	a4,a1,0x14
     8c4:	c426                	sw	s1,8(sp)
     8c6:	078e                	slli	a5,a5,0x3
     8c8:	7ff77493          	andi	s1,a4,2047
     8cc:	01d55713          	srli	a4,a0,0x1d
     8d0:	8fd9                	or	a5,a5,a4
     8d2:	00d37733          	and	a4,t1,a3
     8d6:	0146d313          	srli	t1,a3,0x14
     8da:	c622                	sw	s0,12(sp)
     8dc:	7ff37313          	andi	t1,t1,2047
     8e0:	01f5d413          	srli	s0,a1,0x1f
     8e4:	070e                	slli	a4,a4,0x3
     8e6:	01f6d593          	srli	a1,a3,0x1f
     8ea:	c806                	sw	ra,16(sp)
     8ec:	01d65693          	srli	a3,a2,0x1d
     8f0:	8f55                	or	a4,a4,a3
     8f2:	050e                	slli	a0,a0,0x3
     8f4:	060e                	slli	a2,a2,0x3
     8f6:	406486b3          	sub	a3,s1,t1
     8fa:	22b41463          	bne	s0,a1,b22 <__adddf3+0x26e>
     8fe:	0ed05263          	blez	a3,9e2 <__adddf3+0x12e>
     902:	02031863          	bnez	t1,932 <__adddf3+0x7e>
     906:	00c765b3          	or	a1,a4,a2
     90a:	20058a63          	beqz	a1,b1e <__adddf3+0x26a>
     90e:	fff68593          	addi	a1,a3,-1
     912:	e989                	bnez	a1,924 <__adddf3+0x70>
     914:	962a                	add	a2,a2,a0
     916:	00a63533          	sltu	a0,a2,a0
     91a:	97ba                	add	a5,a5,a4
     91c:	97aa                	add	a5,a5,a0
     91e:	8532                	mv	a0,a2
     920:	4485                	li	s1,1
     922:	a8b9                	j	980 <__adddf3+0xcc>
     924:	7ff00313          	li	t1,2047
     928:	00669d63          	bne	a3,t1,942 <__adddf3+0x8e>
     92c:	7ff00493          	li	s1,2047
     930:	aa71                	j	acc <__adddf3+0x218>
     932:	7ff00593          	li	a1,2047
     936:	18b48b63          	beq	s1,a1,acc <__adddf3+0x218>
     93a:	008005b7          	lui	a1,0x800
     93e:	8f4d                	or	a4,a4,a1
     940:	85b6                	mv	a1,a3
     942:	03800693          	li	a3,56
     946:	08b6ca63          	blt	a3,a1,9da <__adddf3+0x126>
     94a:	46fd                	li	a3,31
     94c:	06b6c163          	blt	a3,a1,9ae <__adddf3+0xfa>
     950:	02000313          	li	t1,32
     954:	40b30333          	sub	t1,t1,a1
     958:	006716b3          	sll	a3,a4,t1
     95c:	00b652b3          	srl	t0,a2,a1
     960:	00661633          	sll	a2,a2,t1
     964:	0056e6b3          	or	a3,a3,t0
     968:	00c03633          	snez	a2,a2
     96c:	8e55                	or	a2,a2,a3
     96e:	00b75733          	srl	a4,a4,a1
     972:	962a                	add	a2,a2,a0
     974:	00a63533          	sltu	a0,a2,a0
     978:	973e                	add	a4,a4,a5
     97a:	00a707b3          	add	a5,a4,a0
     97e:	8532                	mv	a0,a2
     980:	00800737          	lui	a4,0x800
     984:	8f7d                	and	a4,a4,a5
     986:	14070363          	beqz	a4,acc <__adddf3+0x218>
     98a:	0485                	addi	s1,s1,1
     98c:	7ff00713          	li	a4,2047
     990:	48e48b63          	beq	s1,a4,e26 <__adddf3+0x572>
     994:	ff800737          	lui	a4,0xff800
     998:	177d                	addi	a4,a4,-1
     99a:	8ff9                	and	a5,a5,a4
     99c:	00155713          	srli	a4,a0,0x1
     9a0:	8905                	andi	a0,a0,1
     9a2:	8d59                	or	a0,a0,a4
     9a4:	01f79713          	slli	a4,a5,0x1f
     9a8:	8d59                	or	a0,a0,a4
     9aa:	8385                	srli	a5,a5,0x1
     9ac:	a205                	j	acc <__adddf3+0x218>
     9ae:	fe058693          	addi	a3,a1,-32 # 7fffe0 <__min_heap_size+0x7dffe0>
     9b2:	02000293          	li	t0,32
     9b6:	00d756b3          	srl	a3,a4,a3
     9ba:	4301                	li	t1,0
     9bc:	00558863          	beq	a1,t0,9cc <__adddf3+0x118>
     9c0:	04000313          	li	t1,64
     9c4:	40b305b3          	sub	a1,t1,a1
     9c8:	00b71333          	sll	t1,a4,a1
     9cc:	00c36633          	or	a2,t1,a2
     9d0:	00c03633          	snez	a2,a2
     9d4:	8e55                	or	a2,a2,a3
     9d6:	4701                	li	a4,0
     9d8:	bf69                	j	972 <__adddf3+0xbe>
     9da:	8e59                	or	a2,a2,a4
     9dc:	00c03633          	snez	a2,a2
     9e0:	bfdd                	j	9d6 <__adddf3+0x122>
     9e2:	cacd                	beqz	a3,a94 <__adddf3+0x1e0>
     9e4:	409305b3          	sub	a1,t1,s1
     9e8:	e48d                	bnez	s1,a12 <__adddf3+0x15e>
     9ea:	00a7e6b3          	or	a3,a5,a0
     9ee:	42068363          	beqz	a3,e14 <__adddf3+0x560>
     9f2:	fff58693          	addi	a3,a1,-1
     9f6:	e699                	bnez	a3,a04 <__adddf3+0x150>
     9f8:	9532                	add	a0,a0,a2
     9fa:	97ba                	add	a5,a5,a4
     9fc:	00c53633          	sltu	a2,a0,a2
     a00:	97b2                	add	a5,a5,a2
     a02:	bf39                	j	920 <__adddf3+0x6c>
     a04:	7ff00293          	li	t0,2047
     a08:	00559d63          	bne	a1,t0,a22 <__adddf3+0x16e>
     a0c:	87ba                	mv	a5,a4
     a0e:	8532                	mv	a0,a2
     a10:	bf31                	j	92c <__adddf3+0x78>
     a12:	7ff00693          	li	a3,2047
     a16:	fed30be3          	beq	t1,a3,a0c <__adddf3+0x158>
     a1a:	008006b7          	lui	a3,0x800
     a1e:	8fd5                	or	a5,a5,a3
     a20:	86ae                	mv	a3,a1
     a22:	03800593          	li	a1,56
     a26:	06d5c363          	blt	a1,a3,a8c <__adddf3+0x1d8>
     a2a:	45fd                	li	a1,31
     a2c:	02d5ca63          	blt	a1,a3,a60 <__adddf3+0x1ac>
     a30:	02000293          	li	t0,32
     a34:	40d282b3          	sub	t0,t0,a3
     a38:	005795b3          	sll	a1,a5,t0
     a3c:	00d553b3          	srl	t2,a0,a3
     a40:	00551533          	sll	a0,a0,t0
     a44:	0075e5b3          	or	a1,a1,t2
     a48:	00a03533          	snez	a0,a0
     a4c:	8d4d                	or	a0,a0,a1
     a4e:	00d7d7b3          	srl	a5,a5,a3
     a52:	9532                	add	a0,a0,a2
     a54:	97ba                	add	a5,a5,a4
     a56:	00c53633          	sltu	a2,a0,a2
     a5a:	97b2                	add	a5,a5,a2
     a5c:	849a                	mv	s1,t1
     a5e:	b70d                	j	980 <__adddf3+0xcc>
     a60:	fe068593          	addi	a1,a3,-32 # 7fffe0 <__min_heap_size+0x7dffe0>
     a64:	02000393          	li	t2,32
     a68:	00b7d5b3          	srl	a1,a5,a1
     a6c:	4281                	li	t0,0
     a6e:	00768863          	beq	a3,t2,a7e <__adddf3+0x1ca>
     a72:	04000293          	li	t0,64
     a76:	40d286b3          	sub	a3,t0,a3
     a7a:	00d792b3          	sll	t0,a5,a3
     a7e:	00a2e533          	or	a0,t0,a0
     a82:	00a03533          	snez	a0,a0
     a86:	8d4d                	or	a0,a0,a1
     a88:	4781                	li	a5,0
     a8a:	b7e1                	j	a52 <__adddf3+0x19e>
     a8c:	8d5d                	or	a0,a0,a5
     a8e:	00a03533          	snez	a0,a0
     a92:	bfdd                	j	a88 <__adddf3+0x1d4>
     a94:	00148693          	addi	a3,s1,1
     a98:	7fe6f593          	andi	a1,a3,2046
     a9c:	e1bd                	bnez	a1,b02 <__adddf3+0x24e>
     a9e:	00a7e6b3          	or	a3,a5,a0
     aa2:	e4a9                	bnez	s1,aec <__adddf3+0x238>
     aa4:	36068c63          	beqz	a3,e1c <__adddf3+0x568>
     aa8:	00c766b3          	or	a3,a4,a2
     aac:	c285                	beqz	a3,acc <__adddf3+0x218>
     aae:	962a                	add	a2,a2,a0
     ab0:	97ba                	add	a5,a5,a4
     ab2:	00a63533          	sltu	a0,a2,a0
     ab6:	97aa                	add	a5,a5,a0
     ab8:	00800737          	lui	a4,0x800
     abc:	8f7d                	and	a4,a4,a5
     abe:	8532                	mv	a0,a2
     ac0:	c711                	beqz	a4,acc <__adddf3+0x218>
     ac2:	ff800737          	lui	a4,0xff800
     ac6:	177d                	addi	a4,a4,-1
     ac8:	8ff9                	and	a5,a5,a4
     aca:	4485                	li	s1,1
     acc:	00757713          	andi	a4,a0,7
     ad0:	34070d63          	beqz	a4,e2a <__adddf3+0x576>
     ad4:	00f57713          	andi	a4,a0,15
     ad8:	4691                	li	a3,4
     ada:	34d70863          	beq	a4,a3,e2a <__adddf3+0x576>
     ade:	00450713          	addi	a4,a0,4
     ae2:	00a73533          	sltu	a0,a4,a0
     ae6:	97aa                	add	a5,a5,a0
     ae8:	853a                	mv	a0,a4
     aea:	a681                	j	e2a <__adddf3+0x576>
     aec:	d285                	beqz	a3,a0c <__adddf3+0x158>
     aee:	8e59                	or	a2,a2,a4
     af0:	e2060ee3          	beqz	a2,92c <__adddf3+0x78>
     af4:	4401                	li	s0,0
     af6:	004007b7          	lui	a5,0x400
     afa:	4501                	li	a0,0
     afc:	7ff00493          	li	s1,2047
     b00:	a62d                	j	e2a <__adddf3+0x576>
     b02:	7ff00593          	li	a1,2047
     b06:	30b68e63          	beq	a3,a1,e22 <__adddf3+0x56e>
     b0a:	962a                	add	a2,a2,a0
     b0c:	00a63533          	sltu	a0,a2,a0
     b10:	97ba                	add	a5,a5,a4
     b12:	97aa                	add	a5,a5,a0
     b14:	01f79513          	slli	a0,a5,0x1f
     b18:	8205                	srli	a2,a2,0x1
     b1a:	8d51                	or	a0,a0,a2
     b1c:	8385                	srli	a5,a5,0x1
     b1e:	84b6                	mv	s1,a3
     b20:	b775                	j	acc <__adddf3+0x218>
     b22:	0cd05463          	blez	a3,bea <__adddf3+0x336>
     b26:	06031f63          	bnez	t1,ba4 <__adddf3+0x2f0>
     b2a:	00c765b3          	or	a1,a4,a2
     b2e:	d9e5                	beqz	a1,b1e <__adddf3+0x26a>
     b30:	fff68593          	addi	a1,a3,-1
     b34:	e991                	bnez	a1,b48 <__adddf3+0x294>
     b36:	40c50633          	sub	a2,a0,a2
     b3a:	00c53533          	sltu	a0,a0,a2
     b3e:	8f99                	sub	a5,a5,a4
     b40:	8f89                	sub	a5,a5,a0
     b42:	8532                	mv	a0,a2
     b44:	4485                	li	s1,1
     b46:	a0b1                	j	b92 <__adddf3+0x2de>
     b48:	7ff00313          	li	t1,2047
     b4c:	de6680e3          	beq	a3,t1,92c <__adddf3+0x78>
     b50:	03800693          	li	a3,56
     b54:	08b6c763          	blt	a3,a1,be2 <__adddf3+0x32e>
     b58:	46fd                	li	a3,31
     b5a:	04b6ce63          	blt	a3,a1,bb6 <__adddf3+0x302>
     b5e:	02000313          	li	t1,32
     b62:	40b30333          	sub	t1,t1,a1
     b66:	006716b3          	sll	a3,a4,t1
     b6a:	00b652b3          	srl	t0,a2,a1
     b6e:	00661633          	sll	a2,a2,t1
     b72:	0056e6b3          	or	a3,a3,t0
     b76:	00c03633          	snez	a2,a2
     b7a:	8e55                	or	a2,a2,a3
     b7c:	00b75733          	srl	a4,a4,a1
     b80:	40c50633          	sub	a2,a0,a2
     b84:	00c53533          	sltu	a0,a0,a2
     b88:	40e78733          	sub	a4,a5,a4
     b8c:	40a707b3          	sub	a5,a4,a0
     b90:	8532                	mv	a0,a2
     b92:	008006b7          	lui	a3,0x800
     b96:	00d7f733          	and	a4,a5,a3
     b9a:	db0d                	beqz	a4,acc <__adddf3+0x218>
     b9c:	16fd                	addi	a3,a3,-1
     b9e:	8efd                	and	a3,a3,a5
     ba0:	832a                	mv	t1,a0
     ba2:	aa55                	j	d56 <__adddf3+0x4a2>
     ba4:	7ff00593          	li	a1,2047
     ba8:	f2b482e3          	beq	s1,a1,acc <__adddf3+0x218>
     bac:	008005b7          	lui	a1,0x800
     bb0:	8f4d                	or	a4,a4,a1
     bb2:	85b6                	mv	a1,a3
     bb4:	bf71                	j	b50 <__adddf3+0x29c>
     bb6:	fe058693          	addi	a3,a1,-32 # 7fffe0 <__min_heap_size+0x7dffe0>
     bba:	02000293          	li	t0,32
     bbe:	00d756b3          	srl	a3,a4,a3
     bc2:	4301                	li	t1,0
     bc4:	00558863          	beq	a1,t0,bd4 <__adddf3+0x320>
     bc8:	04000313          	li	t1,64
     bcc:	40b305b3          	sub	a1,t1,a1
     bd0:	00b71333          	sll	t1,a4,a1
     bd4:	00c36633          	or	a2,t1,a2
     bd8:	00c03633          	snez	a2,a2
     bdc:	8e55                	or	a2,a2,a3
     bde:	4701                	li	a4,0
     be0:	b745                	j	b80 <__adddf3+0x2cc>
     be2:	8e59                	or	a2,a2,a4
     be4:	00c03633          	snez	a2,a2
     be8:	bfdd                	j	bde <__adddf3+0x32a>
     bea:	c2f9                	beqz	a3,cb0 <__adddf3+0x3fc>
     bec:	409302b3          	sub	t0,t1,s1
     bf0:	e895                	bnez	s1,c24 <__adddf3+0x370>
     bf2:	00a7e6b3          	or	a3,a5,a0
     bf6:	28068863          	beqz	a3,e86 <__adddf3+0x5d2>
     bfa:	fff28693          	addi	a3,t0,-1 # ffffff <__min_heap_size+0xfdffff>
     bfe:	ea91                	bnez	a3,c12 <__adddf3+0x35e>
     c00:	40a60533          	sub	a0,a2,a0
     c04:	40f707b3          	sub	a5,a4,a5
     c08:	00a63633          	sltu	a2,a2,a0
     c0c:	8f91                	sub	a5,a5,a2
     c0e:	842e                	mv	s0,a1
     c10:	bf15                	j	b44 <__adddf3+0x290>
     c12:	7ff00393          	li	t2,2047
     c16:	00729f63          	bne	t0,t2,c34 <__adddf3+0x380>
     c1a:	87ba                	mv	a5,a4
     c1c:	8532                	mv	a0,a2
     c1e:	7ff00493          	li	s1,2047
     c22:	a07d                	j	cd0 <__adddf3+0x41c>
     c24:	7ff00693          	li	a3,2047
     c28:	fed309e3          	beq	t1,a3,c1a <__adddf3+0x366>
     c2c:	008006b7          	lui	a3,0x800
     c30:	8fd5                	or	a5,a5,a3
     c32:	8696                	mv	a3,t0
     c34:	03800293          	li	t0,56
     c38:	06d2c863          	blt	t0,a3,ca8 <__adddf3+0x3f4>
     c3c:	42fd                	li	t0,31
     c3e:	02d2ce63          	blt	t0,a3,c7a <__adddf3+0x3c6>
     c42:	02000393          	li	t2,32
     c46:	40d383b3          	sub	t2,t2,a3
     c4a:	007792b3          	sll	t0,a5,t2
     c4e:	00d55433          	srl	s0,a0,a3
     c52:	00751533          	sll	a0,a0,t2
     c56:	0082e2b3          	or	t0,t0,s0
     c5a:	00a03533          	snez	a0,a0
     c5e:	00a2e533          	or	a0,t0,a0
     c62:	00d7d7b3          	srl	a5,a5,a3
     c66:	40a60533          	sub	a0,a2,a0
     c6a:	40f707b3          	sub	a5,a4,a5
     c6e:	00a63633          	sltu	a2,a2,a0
     c72:	8f91                	sub	a5,a5,a2
     c74:	849a                	mv	s1,t1
     c76:	842e                	mv	s0,a1
     c78:	bf29                	j	b92 <__adddf3+0x2de>
     c7a:	fe068293          	addi	t0,a3,-32 # 7fffe0 <__min_heap_size+0x7dffe0>
     c7e:	02000413          	li	s0,32
     c82:	0057d2b3          	srl	t0,a5,t0
     c86:	4381                	li	t2,0
     c88:	00868863          	beq	a3,s0,c98 <__adddf3+0x3e4>
     c8c:	04000393          	li	t2,64
     c90:	40d386b3          	sub	a3,t2,a3
     c94:	00d793b3          	sll	t2,a5,a3
     c98:	00a3e533          	or	a0,t2,a0
     c9c:	00a03533          	snez	a0,a0
     ca0:	00a2e533          	or	a0,t0,a0
     ca4:	4781                	li	a5,0
     ca6:	b7c1                	j	c66 <__adddf3+0x3b2>
     ca8:	8d5d                	or	a0,a0,a5
     caa:	00a03533          	snez	a0,a0
     cae:	bfdd                	j	ca4 <__adddf3+0x3f0>
     cb0:	00148693          	addi	a3,s1,1
     cb4:	7fe6f693          	andi	a3,a3,2046
     cb8:	eaa5                	bnez	a3,d28 <__adddf3+0x474>
     cba:	00a7e333          	or	t1,a5,a0
     cbe:	00c766b3          	or	a3,a4,a2
     cc2:	e8a1                	bnez	s1,d12 <__adddf3+0x45e>
     cc4:	00031863          	bnez	t1,cd4 <__adddf3+0x420>
     cc8:	1c068363          	beqz	a3,e8e <__adddf3+0x5da>
     ccc:	87ba                	mv	a5,a4
     cce:	8532                	mv	a0,a2
     cd0:	842e                	mv	s0,a1
     cd2:	bbed                	j	acc <__adddf3+0x218>
     cd4:	de068ce3          	beqz	a3,acc <__adddf3+0x218>
     cd8:	40c50333          	sub	t1,a0,a2
     cdc:	006532b3          	sltu	t0,a0,t1
     ce0:	40e786b3          	sub	a3,a5,a4
     ce4:	405686b3          	sub	a3,a3,t0
     ce8:	008002b7          	lui	t0,0x800
     cec:	0056f2b3          	and	t0,a3,t0
     cf0:	00028a63          	beqz	t0,d04 <__adddf3+0x450>
     cf4:	40a60533          	sub	a0,a2,a0
     cf8:	40f707b3          	sub	a5,a4,a5
     cfc:	00a63633          	sltu	a2,a2,a0
     d00:	8f91                	sub	a5,a5,a2
     d02:	b7f9                	j	cd0 <__adddf3+0x41c>
     d04:	00d36533          	or	a0,t1,a3
     d08:	18050763          	beqz	a0,e96 <__adddf3+0x5e2>
     d0c:	87b6                	mv	a5,a3
     d0e:	851a                	mv	a0,t1
     d10:	bb75                	j	acc <__adddf3+0x218>
     d12:	00031863          	bnez	t1,d22 <__adddf3+0x46e>
     d16:	18068263          	beqz	a3,e9a <__adddf3+0x5e6>
     d1a:	87ba                	mv	a5,a4
     d1c:	8532                	mv	a0,a2
     d1e:	842e                	mv	s0,a1
     d20:	b131                	j	92c <__adddf3+0x78>
     d22:	c00685e3          	beqz	a3,92c <__adddf3+0x78>
     d26:	b3f9                	j	af4 <__adddf3+0x240>
     d28:	40c50333          	sub	t1,a0,a2
     d2c:	006532b3          	sltu	t0,a0,t1
     d30:	40e786b3          	sub	a3,a5,a4
     d34:	405686b3          	sub	a3,a3,t0
     d38:	008002b7          	lui	t0,0x800
     d3c:	0056f2b3          	and	t0,a3,t0
     d40:	06028b63          	beqz	t0,db6 <__adddf3+0x502>
     d44:	40a60333          	sub	t1,a2,a0
     d48:	40f707b3          	sub	a5,a4,a5
     d4c:	00663633          	sltu	a2,a2,t1
     d50:	40c786b3          	sub	a3,a5,a2
     d54:	842e                	mv	s0,a1
     d56:	c6b5                	beqz	a3,dc2 <__adddf3+0x50e>
     d58:	8536                	mv	a0,a3
     d5a:	c21a                	sw	t1,4(sp)
     d5c:	c036                	sw	a3,0(sp)
     d5e:	424010ef          	jal	ra,2182 <__clzsi2>
     d62:	4682                	lw	a3,0(sp)
     d64:	4312                	lw	t1,4(sp)
     d66:	ff850713          	addi	a4,a0,-8
     d6a:	47fd                	li	a5,31
     d6c:	06e7c563          	blt	a5,a4,dd6 <__adddf3+0x522>
     d70:	02000793          	li	a5,32
     d74:	8f99                	sub	a5,a5,a4
     d76:	00e696b3          	sll	a3,a3,a4
     d7a:	00f357b3          	srl	a5,t1,a5
     d7e:	8fd5                	or	a5,a5,a3
     d80:	00e31533          	sll	a0,t1,a4
     d84:	08974263          	blt	a4,s1,e08 <__adddf3+0x554>
     d88:	8f05                	sub	a4,a4,s1
     d8a:	00170613          	addi	a2,a4,1 # ff800001 <__heap_end+0xdf7d0001>
     d8e:	46fd                	li	a3,31
     d90:	04c6c963          	blt	a3,a2,de2 <__adddf3+0x52e>
     d94:	02000713          	li	a4,32
     d98:	8f11                	sub	a4,a4,a2
     d9a:	00e796b3          	sll	a3,a5,a4
     d9e:	00c555b3          	srl	a1,a0,a2
     da2:	00e51533          	sll	a0,a0,a4
     da6:	8ecd                	or	a3,a3,a1
     da8:	00a03533          	snez	a0,a0
     dac:	8d55                	or	a0,a0,a3
     dae:	00c7d7b3          	srl	a5,a5,a2
     db2:	4481                	li	s1,0
     db4:	bb21                	j	acc <__adddf3+0x218>
     db6:	00d36533          	or	a0,t1,a3
     dba:	fd51                	bnez	a0,d56 <__adddf3+0x4a2>
     dbc:	4781                	li	a5,0
     dbe:	4481                	li	s1,0
     dc0:	a8c9                	j	e92 <__adddf3+0x5de>
     dc2:	851a                	mv	a0,t1
     dc4:	c236                	sw	a3,4(sp)
     dc6:	c01a                	sw	t1,0(sp)
     dc8:	3ba010ef          	jal	ra,2182 <__clzsi2>
     dcc:	4692                	lw	a3,4(sp)
     dce:	4302                	lw	t1,0(sp)
     dd0:	02050513          	addi	a0,a0,32
     dd4:	bf49                	j	d66 <__adddf3+0x4b2>
     dd6:	fd850793          	addi	a5,a0,-40
     dda:	00f317b3          	sll	a5,t1,a5
     dde:	4501                	li	a0,0
     de0:	b755                	j	d84 <__adddf3+0x4d0>
     de2:	1705                	addi	a4,a4,-31
     de4:	02000593          	li	a1,32
     de8:	00e7d733          	srl	a4,a5,a4
     dec:	4681                	li	a3,0
     dee:	00b60763          	beq	a2,a1,dfc <__adddf3+0x548>
     df2:	04000693          	li	a3,64
     df6:	8e91                	sub	a3,a3,a2
     df8:	00d796b3          	sll	a3,a5,a3
     dfc:	8d55                	or	a0,a0,a3
     dfe:	00a03533          	snez	a0,a0
     e02:	8d59                	or	a0,a0,a4
     e04:	4781                	li	a5,0
     e06:	b775                	j	db2 <__adddf3+0x4fe>
     e08:	8c99                	sub	s1,s1,a4
     e0a:	ff800737          	lui	a4,0xff800
     e0e:	177d                	addi	a4,a4,-1
     e10:	8ff9                	and	a5,a5,a4
     e12:	b96d                	j	acc <__adddf3+0x218>
     e14:	87ba                	mv	a5,a4
     e16:	8532                	mv	a0,a2
     e18:	84ae                	mv	s1,a1
     e1a:	b94d                	j	acc <__adddf3+0x218>
     e1c:	87ba                	mv	a5,a4
     e1e:	8532                	mv	a0,a2
     e20:	b175                	j	acc <__adddf3+0x218>
     e22:	7ff00493          	li	s1,2047
     e26:	4781                	li	a5,0
     e28:	4501                	li	a0,0
     e2a:	00800737          	lui	a4,0x800
     e2e:	8f7d                	and	a4,a4,a5
     e30:	cb11                	beqz	a4,e44 <__adddf3+0x590>
     e32:	0485                	addi	s1,s1,1
     e34:	7ff00713          	li	a4,2047
     e38:	06e48663          	beq	s1,a4,ea4 <__adddf3+0x5f0>
     e3c:	ff800737          	lui	a4,0xff800
     e40:	177d                	addi	a4,a4,-1
     e42:	8ff9                	and	a5,a5,a4
     e44:	01d79713          	slli	a4,a5,0x1d
     e48:	810d                	srli	a0,a0,0x3
     e4a:	8d59                	or	a0,a0,a4
     e4c:	7ff00713          	li	a4,2047
     e50:	838d                	srli	a5,a5,0x3
     e52:	00e49963          	bne	s1,a4,e64 <__adddf3+0x5b0>
     e56:	8d5d                	or	a0,a0,a5
     e58:	4781                	li	a5,0
     e5a:	c509                	beqz	a0,e64 <__adddf3+0x5b0>
     e5c:	000807b7          	lui	a5,0x80
     e60:	4501                	li	a0,0
     e62:	4401                	li	s0,0
     e64:	01449713          	slli	a4,s1,0x14
     e68:	7ff006b7          	lui	a3,0x7ff00
     e6c:	07b2                	slli	a5,a5,0xc
     e6e:	8f75                	and	a4,a4,a3
     e70:	83b1                	srli	a5,a5,0xc
     e72:	047e                	slli	s0,s0,0x1f
     e74:	8fd9                	or	a5,a5,a4
     e76:	40c2                	lw	ra,16(sp)
     e78:	0087e733          	or	a4,a5,s0
     e7c:	4432                	lw	s0,12(sp)
     e7e:	44a2                	lw	s1,8(sp)
     e80:	85ba                	mv	a1,a4
     e82:	0151                	addi	sp,sp,20
     e84:	8082                	ret
     e86:	87ba                	mv	a5,a4
     e88:	8532                	mv	a0,a2
     e8a:	8496                	mv	s1,t0
     e8c:	b591                	j	cd0 <__adddf3+0x41c>
     e8e:	4781                	li	a5,0
     e90:	4501                	li	a0,0
     e92:	4401                	li	s0,0
     e94:	bf59                	j	e2a <__adddf3+0x576>
     e96:	4781                	li	a5,0
     e98:	bfed                	j	e92 <__adddf3+0x5de>
     e9a:	4501                	li	a0,0
     e9c:	4401                	li	s0,0
     e9e:	004007b7          	lui	a5,0x400
     ea2:	b9a9                	j	afc <__adddf3+0x248>
     ea4:	4781                	li	a5,0
     ea6:	4501                	li	a0,0
     ea8:	bf71                	j	e44 <__adddf3+0x590>

00000eaa <__divdf3>:
     eaa:	fdc10113          	addi	sp,sp,-36
     eae:	cc26                	sw	s1,24(sp)
     eb0:	872a                	mv	a4,a0
     eb2:	84b2                	mv	s1,a2
     eb4:	87aa                	mv	a5,a0
     eb6:	01f5d613          	srli	a2,a1,0x1f
     eba:	0145d513          	srli	a0,a1,0x14
     ebe:	00c59313          	slli	t1,a1,0xc
     ec2:	d006                	sw	ra,32(sp)
     ec4:	ce22                	sw	s0,28(sp)
     ec6:	7ff57513          	andi	a0,a0,2047
     eca:	c432                	sw	a2,8(sp)
     ecc:	00c35313          	srli	t1,t1,0xc
     ed0:	c551                	beqz	a0,f5c <__divdf3+0xb2>
     ed2:	7ff00593          	li	a1,2047
     ed6:	0eb50863          	beq	a0,a1,fc6 <__divdf3+0x11c>
     eda:	01d75413          	srli	s0,a4,0x1d
     ede:	030e                	slli	t1,t1,0x3
     ee0:	008007b7          	lui	a5,0x800
     ee4:	00646433          	or	s0,s0,t1
     ee8:	8c5d                	or	s0,s0,a5
     eea:	c0150613          	addi	a2,a0,-1023
     eee:	00371793          	slli	a5,a4,0x3
     ef2:	4301                	li	t1,0
     ef4:	0146d513          	srli	a0,a3,0x14
     ef8:	01f6d713          	srli	a4,a3,0x1f
     efc:	00c69393          	slli	t2,a3,0xc
     f00:	7ff57513          	andi	a0,a0,2047
     f04:	c63a                	sw	a4,12(sp)
     f06:	00c3d393          	srli	t2,t2,0xc
     f0a:	cd79                	beqz	a0,fe8 <__divdf3+0x13e>
     f0c:	7ff00713          	li	a4,2047
     f10:	14e50763          	beq	a0,a4,105e <__divdf3+0x1b4>
     f14:	01d4d713          	srli	a4,s1,0x1d
     f18:	038e                	slli	t2,t2,0x3
     f1a:	007763b3          	or	t2,a4,t2
     f1e:	008006b7          	lui	a3,0x800
     f22:	00d3e3b3          	or	t2,t2,a3
     f26:	00349713          	slli	a4,s1,0x3
     f2a:	c0150513          	addi	a0,a0,-1023
     f2e:	4681                	li	a3,0
     f30:	45a2                	lw	a1,8(sp)
     f32:	44b2                	lw	s1,12(sp)
     f34:	8e09                	sub	a2,a2,a0
     f36:	c232                	sw	a2,4(sp)
     f38:	00231613          	slli	a2,t1,0x2
     f3c:	8da5                	xor	a1,a1,s1
     f3e:	8e55                	or	a2,a2,a3
     f40:	c02e                	sw	a1,0(sp)
     f42:	167d                	addi	a2,a2,-1
     f44:	45b9                	li	a1,14
     f46:	12c5ed63          	bltu	a1,a2,1080 <__divdf3+0x1d6>
     f4a:	00004597          	auipc	a1,0x4
     f4e:	c7658593          	addi	a1,a1,-906 # 4bc0 <__srodata>
     f52:	060a                	slli	a2,a2,0x2
     f54:	962e                	add	a2,a2,a1
     f56:	4210                	lw	a2,0(a2)
     f58:	962e                	add	a2,a2,a1
     f5a:	8602                	jr	a2
     f5c:	00e36433          	or	s0,t1,a4
     f60:	c83d                	beqz	s0,fd6 <__divdf3+0x12c>
     f62:	c636                	sw	a3,12(sp)
     f64:	04030063          	beqz	t1,fa4 <__divdf3+0xfa>
     f68:	851a                	mv	a0,t1
     f6a:	c23a                	sw	a4,4(sp)
     f6c:	c01a                	sw	t1,0(sp)
     f6e:	214010ef          	jal	ra,2182 <__clzsi2>
     f72:	4302                	lw	t1,0(sp)
     f74:	4712                	lw	a4,4(sp)
     f76:	46b2                	lw	a3,12(sp)
     f78:	ff550593          	addi	a1,a0,-11
     f7c:	47f1                	li	a5,28
     f7e:	02b7ce63          	blt	a5,a1,fba <__divdf3+0x110>
     f82:	4475                	li	s0,29
     f84:	ff850793          	addi	a5,a0,-8
     f88:	8c0d                	sub	s0,s0,a1
     f8a:	00f31333          	sll	t1,t1,a5
     f8e:	00875433          	srl	s0,a4,s0
     f92:	00646433          	or	s0,s0,t1
     f96:	00f717b3          	sll	a5,a4,a5
     f9a:	c0d00593          	li	a1,-1011
     f9e:	40a58633          	sub	a2,a1,a0
     fa2:	bf81                	j	ef2 <__divdf3+0x48>
     fa4:	853a                	mv	a0,a4
     fa6:	c21a                	sw	t1,4(sp)
     fa8:	c03a                	sw	a4,0(sp)
     faa:	1d8010ef          	jal	ra,2182 <__clzsi2>
     fae:	46b2                	lw	a3,12(sp)
     fb0:	4312                	lw	t1,4(sp)
     fb2:	4702                	lw	a4,0(sp)
     fb4:	02050513          	addi	a0,a0,32
     fb8:	b7c1                	j	f78 <__divdf3+0xce>
     fba:	fd850413          	addi	s0,a0,-40
     fbe:	00871433          	sll	s0,a4,s0
     fc2:	4781                	li	a5,0
     fc4:	bfd9                	j	f9a <__divdf3+0xf0>
     fc6:	00e36433          	or	s0,t1,a4
     fca:	c811                	beqz	s0,fde <__divdf3+0x134>
     fcc:	841a                	mv	s0,t1
     fce:	7ff00613          	li	a2,2047
     fd2:	430d                	li	t1,3
     fd4:	b705                	j	ef4 <__divdf3+0x4a>
     fd6:	4781                	li	a5,0
     fd8:	4601                	li	a2,0
     fda:	4305                	li	t1,1
     fdc:	bf21                	j	ef4 <__divdf3+0x4a>
     fde:	4781                	li	a5,0
     fe0:	7ff00613          	li	a2,2047
     fe4:	4309                	li	t1,2
     fe6:	b739                	j	ef4 <__divdf3+0x4a>
     fe8:	0093e733          	or	a4,t2,s1
     fec:	c349                	beqz	a4,106e <__divdf3+0x1c4>
     fee:	04038463          	beqz	t2,1036 <__divdf3+0x18c>
     ff2:	851e                	mv	a0,t2
     ff4:	ca1a                	sw	t1,20(sp)
     ff6:	c832                	sw	a2,16(sp)
     ff8:	c23e                	sw	a5,4(sp)
     ffa:	c01e                	sw	t2,0(sp)
     ffc:	186010ef          	jal	ra,2182 <__clzsi2>
    1000:	4382                	lw	t2,0(sp)
    1002:	4792                	lw	a5,4(sp)
    1004:	4642                	lw	a2,16(sp)
    1006:	4352                	lw	t1,20(sp)
    1008:	ff550293          	addi	t0,a0,-11
    100c:	4771                	li	a4,28
    100e:	04574263          	blt	a4,t0,1052 <__divdf3+0x1a8>
    1012:	46f5                	li	a3,29
    1014:	ff850713          	addi	a4,a0,-8
    1018:	405686b3          	sub	a3,a3,t0
    101c:	00e393b3          	sll	t2,t2,a4
    1020:	00d4d6b3          	srl	a3,s1,a3
    1024:	0076e3b3          	or	t2,a3,t2
    1028:	00e49733          	sll	a4,s1,a4
    102c:	c0d00693          	li	a3,-1011
    1030:	40a68533          	sub	a0,a3,a0
    1034:	bded                	j	f2e <__divdf3+0x84>
    1036:	8526                	mv	a0,s1
    1038:	ca1e                	sw	t2,20(sp)
    103a:	c81a                	sw	t1,16(sp)
    103c:	c232                	sw	a2,4(sp)
    103e:	c03e                	sw	a5,0(sp)
    1040:	142010ef          	jal	ra,2182 <__clzsi2>
    1044:	43d2                	lw	t2,20(sp)
    1046:	4342                	lw	t1,16(sp)
    1048:	4612                	lw	a2,4(sp)
    104a:	4782                	lw	a5,0(sp)
    104c:	02050513          	addi	a0,a0,32
    1050:	bf65                	j	1008 <__divdf3+0x15e>
    1052:	fd850393          	addi	t2,a0,-40
    1056:	007493b3          	sll	t2,s1,t2
    105a:	4701                	li	a4,0
    105c:	bfc1                	j	102c <__divdf3+0x182>
    105e:	0093e733          	or	a4,t2,s1
    1062:	cb11                	beqz	a4,1076 <__divdf3+0x1cc>
    1064:	8726                	mv	a4,s1
    1066:	7ff00513          	li	a0,2047
    106a:	468d                	li	a3,3
    106c:	b5d1                	j	f30 <__divdf3+0x86>
    106e:	4381                	li	t2,0
    1070:	4501                	li	a0,0
    1072:	4685                	li	a3,1
    1074:	bd75                	j	f30 <__divdf3+0x86>
    1076:	4381                	li	t2,0
    1078:	7ff00513          	li	a0,2047
    107c:	4689                	li	a3,2
    107e:	bd4d                	j	f30 <__divdf3+0x86>
    1080:	0083e663          	bltu	t2,s0,108c <__divdf3+0x1e2>
    1084:	2c741263          	bne	s0,t2,1348 <__divdf3+0x49e>
    1088:	2ce7e063          	bltu	a5,a4,1348 <__divdf3+0x49e>
    108c:	01f41613          	slli	a2,s0,0x1f
    1090:	0017d693          	srli	a3,a5,0x1
    1094:	01f79513          	slli	a0,a5,0x1f
    1098:	8005                	srli	s0,s0,0x1
    109a:	00d667b3          	or	a5,a2,a3
    109e:	03a2                	slli	t2,t2,0x8
    10a0:	0103d493          	srli	s1,t2,0x10
    10a4:	02945333          	divu	t1,s0,s1
    10a8:	01875613          	srli	a2,a4,0x18
    10ac:	00766633          	or	a2,a2,t2
    10b0:	00871593          	slli	a1,a4,0x8
    10b4:	01061713          	slli	a4,a2,0x10
    10b8:	8341                	srli	a4,a4,0x10
    10ba:	c43a                	sw	a4,8(sp)
    10bc:	0107d693          	srli	a3,a5,0x10
    10c0:	02947433          	remu	s0,s0,s1
    10c4:	02670733          	mul	a4,a4,t1
    10c8:	0442                	slli	s0,s0,0x10
    10ca:	8c55                	or	s0,s0,a3
    10cc:	869a                	mv	a3,t1
    10ce:	00e47c63          	bgeu	s0,a4,10e6 <__divdf3+0x23c>
    10d2:	9432                	add	s0,s0,a2
    10d4:	fff30693          	addi	a3,t1,-1 # fffff <__min_heap_size+0xdffff>
    10d8:	00c46763          	bltu	s0,a2,10e6 <__divdf3+0x23c>
    10dc:	00e47563          	bgeu	s0,a4,10e6 <__divdf3+0x23c>
    10e0:	ffe30693          	addi	a3,t1,-2
    10e4:	9432                	add	s0,s0,a2
    10e6:	8c19                	sub	s0,s0,a4
    10e8:	029452b3          	divu	t0,s0,s1
    10ec:	01061713          	slli	a4,a2,0x10
    10f0:	8341                	srli	a4,a4,0x10
    10f2:	07c2                	slli	a5,a5,0x10
    10f4:	83c1                	srli	a5,a5,0x10
    10f6:	02947433          	remu	s0,s0,s1
    10fa:	8396                	mv	t2,t0
    10fc:	02570333          	mul	t1,a4,t0
    1100:	0442                	slli	s0,s0,0x10
    1102:	8fc1                	or	a5,a5,s0
    1104:	0067fc63          	bgeu	a5,t1,111c <__divdf3+0x272>
    1108:	97b2                	add	a5,a5,a2
    110a:	fff28393          	addi	t2,t0,-1 # 7fffff <__min_heap_size+0x7dffff>
    110e:	00c7e763          	bltu	a5,a2,111c <__divdf3+0x272>
    1112:	0067f563          	bgeu	a5,t1,111c <__divdf3+0x272>
    1116:	ffe28393          	addi	t2,t0,-2
    111a:	97b2                	add	a5,a5,a2
    111c:	06c2                	slli	a3,a3,0x10
    111e:	6441                	lui	s0,0x10
    1120:	0076e6b3          	or	a3,a3,t2
    1124:	fff40713          	addi	a4,s0,-1 # ffff <__ctor_end__+0xa6e7>
    1128:	00e6f2b3          	and	t0,a3,a4
    112c:	406787b3          	sub	a5,a5,t1
    1130:	8f6d                	and	a4,a4,a1
    1132:	0106d313          	srli	t1,a3,0x10
    1136:	025703b3          	mul	t2,a4,t0
    113a:	c43a                	sw	a4,8(sp)
    113c:	02e30733          	mul	a4,t1,a4
    1140:	c63a                	sw	a4,12(sp)
    1142:	0105d713          	srli	a4,a1,0x10
    1146:	025702b3          	mul	t0,a4,t0
    114a:	02e30333          	mul	t1,t1,a4
    114e:	4732                	lw	a4,12(sp)
    1150:	92ba                	add	t0,t0,a4
    1152:	0103d713          	srli	a4,t2,0x10
    1156:	9716                	add	a4,a4,t0
    1158:	42b2                	lw	t0,12(sp)
    115a:	00577363          	bgeu	a4,t0,1160 <__divdf3+0x2b6>
    115e:	9322                	add	t1,t1,s0
    1160:	6441                	lui	s0,0x10
    1162:	147d                	addi	s0,s0,-1
    1164:	01075293          	srli	t0,a4,0x10
    1168:	8f61                	and	a4,a4,s0
    116a:	0742                	slli	a4,a4,0x10
    116c:	0083f3b3          	and	t2,t2,s0
    1170:	9316                	add	t1,t1,t0
    1172:	971e                	add	a4,a4,t2
    1174:	0067e763          	bltu	a5,t1,1182 <__divdf3+0x2d8>
    1178:	83b6                	mv	t2,a3
    117a:	02679e63          	bne	a5,t1,11b6 <__divdf3+0x30c>
    117e:	02e57c63          	bgeu	a0,a4,11b6 <__divdf3+0x30c>
    1182:	952e                	add	a0,a0,a1
    1184:	00b532b3          	sltu	t0,a0,a1
    1188:	92b2                	add	t0,t0,a2
    118a:	9796                	add	a5,a5,t0
    118c:	fff68393          	addi	t2,a3,-1 # 7fffff <__min_heap_size+0x7dffff>
    1190:	00f66663          	bltu	a2,a5,119c <__divdf3+0x2f2>
    1194:	02f61163          	bne	a2,a5,11b6 <__divdf3+0x30c>
    1198:	00b56f63          	bltu	a0,a1,11b6 <__divdf3+0x30c>
    119c:	0067e663          	bltu	a5,t1,11a8 <__divdf3+0x2fe>
    11a0:	00f31b63          	bne	t1,a5,11b6 <__divdf3+0x30c>
    11a4:	00e57963          	bgeu	a0,a4,11b6 <__divdf3+0x30c>
    11a8:	952e                	add	a0,a0,a1
    11aa:	ffe68393          	addi	t2,a3,-2
    11ae:	00b536b3          	sltu	a3,a0,a1
    11b2:	96b2                	add	a3,a3,a2
    11b4:	97b6                	add	a5,a5,a3
    11b6:	40e502b3          	sub	t0,a0,a4
    11ba:	40678333          	sub	t1,a5,t1
    11be:	00553533          	sltu	a0,a0,t0
    11c2:	40a30333          	sub	t1,t1,a0
    11c6:	577d                	li	a4,-1
    11c8:	10660063          	beq	a2,t1,12c8 <__divdf3+0x41e>
    11cc:	02935433          	divu	s0,t1,s1
    11d0:	01061793          	slli	a5,a2,0x10
    11d4:	83c1                	srli	a5,a5,0x10
    11d6:	0102d693          	srli	a3,t0,0x10
    11da:	02878733          	mul	a4,a5,s0
    11de:	029377b3          	remu	a5,t1,s1
    11e2:	07c2                	slli	a5,a5,0x10
    11e4:	8fd5                	or	a5,a5,a3
    11e6:	86a2                	mv	a3,s0
    11e8:	00e7fc63          	bgeu	a5,a4,1200 <__divdf3+0x356>
    11ec:	97b2                	add	a5,a5,a2
    11ee:	fff40693          	addi	a3,s0,-1 # ffff <__ctor_end__+0xa6e7>
    11f2:	00c7e763          	bltu	a5,a2,1200 <__divdf3+0x356>
    11f6:	00e7f563          	bgeu	a5,a4,1200 <__divdf3+0x356>
    11fa:	ffe40693          	addi	a3,s0,-2
    11fe:	97b2                	add	a5,a5,a2
    1200:	40e78733          	sub	a4,a5,a4
    1204:	02975333          	divu	t1,a4,s1
    1208:	01061793          	slli	a5,a2,0x10
    120c:	83c1                	srli	a5,a5,0x10
    120e:	02678533          	mul	a0,a5,t1
    1212:	841a                	mv	s0,t1
    1214:	029777b3          	remu	a5,a4,s1
    1218:	01029713          	slli	a4,t0,0x10
    121c:	8341                	srli	a4,a4,0x10
    121e:	07c2                	slli	a5,a5,0x10
    1220:	8fd9                	or	a5,a5,a4
    1222:	00a7fc63          	bgeu	a5,a0,123a <__divdf3+0x390>
    1226:	97b2                	add	a5,a5,a2
    1228:	fff30413          	addi	s0,t1,-1
    122c:	00c7e763          	bltu	a5,a2,123a <__divdf3+0x390>
    1230:	00a7f563          	bgeu	a5,a0,123a <__divdf3+0x390>
    1234:	ffe30413          	addi	s0,t1,-2
    1238:	97b2                	add	a5,a5,a2
    123a:	06c2                	slli	a3,a3,0x10
    123c:	8ec1                	or	a3,a3,s0
    123e:	4422                	lw	s0,8(sp)
    1240:	8f89                	sub	a5,a5,a0
    1242:	4522                	lw	a0,8(sp)
    1244:	0106d293          	srli	t0,a3,0x10
    1248:	01069713          	slli	a4,a3,0x10
    124c:	02828333          	mul	t1,t0,s0
    1250:	8341                	srli	a4,a4,0x10
    1252:	0105d413          	srli	s0,a1,0x10
    1256:	02a70533          	mul	a0,a4,a0
    125a:	02e40733          	mul	a4,s0,a4
    125e:	025402b3          	mul	t0,s0,t0
    1262:	971a                	add	a4,a4,t1
    1264:	01055413          	srli	s0,a0,0x10
    1268:	9722                	add	a4,a4,s0
    126a:	00677463          	bgeu	a4,t1,1272 <__divdf3+0x3c8>
    126e:	6341                	lui	t1,0x10
    1270:	929a                	add	t0,t0,t1
    1272:	01075313          	srli	t1,a4,0x10
    1276:	929a                	add	t0,t0,t1
    1278:	6341                	lui	t1,0x10
    127a:	137d                	addi	t1,t1,-1
    127c:	00677733          	and	a4,a4,t1
    1280:	0742                	slli	a4,a4,0x10
    1282:	00657533          	and	a0,a0,t1
    1286:	953a                	add	a0,a0,a4
    1288:	0057e663          	bltu	a5,t0,1294 <__divdf3+0x3ea>
    128c:	1a579663          	bne	a5,t0,1438 <__divdf3+0x58e>
    1290:	8736                	mv	a4,a3
    1292:	c91d                	beqz	a0,12c8 <__divdf3+0x41e>
    1294:	97b2                	add	a5,a5,a2
    1296:	fff68713          	addi	a4,a3,-1
    129a:	02c7e163          	bltu	a5,a2,12bc <__divdf3+0x412>
    129e:	0057e663          	bltu	a5,t0,12aa <__divdf3+0x400>
    12a2:	18579a63          	bne	a5,t0,1436 <__divdf3+0x58c>
    12a6:	00a5fd63          	bgeu	a1,a0,12c0 <__divdf3+0x416>
    12aa:	ffe68713          	addi	a4,a3,-2
    12ae:	00159693          	slli	a3,a1,0x1
    12b2:	00b6b5b3          	sltu	a1,a3,a1
    12b6:	962e                	add	a2,a2,a1
    12b8:	97b2                	add	a5,a5,a2
    12ba:	85b6                	mv	a1,a3
    12bc:	00579463          	bne	a5,t0,12c4 <__divdf3+0x41a>
    12c0:	00b50463          	beq	a0,a1,12c8 <__divdf3+0x41e>
    12c4:	00176713          	ori	a4,a4,1
    12c8:	4792                	lw	a5,4(sp)
    12ca:	3ff78793          	addi	a5,a5,1023 # 8003ff <__min_heap_size+0x7e03ff>
    12ce:	0af05e63          	blez	a5,138a <__divdf3+0x4e0>
    12d2:	00777693          	andi	a3,a4,7
    12d6:	ce81                	beqz	a3,12ee <__divdf3+0x444>
    12d8:	00f77693          	andi	a3,a4,15
    12dc:	4611                	li	a2,4
    12de:	00c68863          	beq	a3,a2,12ee <__divdf3+0x444>
    12e2:	00470693          	addi	a3,a4,4 # ff800004 <__heap_end+0xdf7d0004>
    12e6:	00e6b733          	sltu	a4,a3,a4
    12ea:	93ba                	add	t2,t2,a4
    12ec:	8736                	mv	a4,a3
    12ee:	010006b7          	lui	a3,0x1000
    12f2:	00d3f6b3          	and	a3,t2,a3
    12f6:	ca89                	beqz	a3,1308 <__divdf3+0x45e>
    12f8:	ff0007b7          	lui	a5,0xff000
    12fc:	17fd                	addi	a5,a5,-1
    12fe:	00f3f3b3          	and	t2,t2,a5
    1302:	4792                	lw	a5,4(sp)
    1304:	40078793          	addi	a5,a5,1024 # ff000400 <__heap_end+0xdefd0400>
    1308:	7fe00693          	li	a3,2046
    130c:	06f6c163          	blt	a3,a5,136e <__divdf3+0x4c4>
    1310:	01d39693          	slli	a3,t2,0x1d
    1314:	830d                	srli	a4,a4,0x3
    1316:	8f55                	or	a4,a4,a3
    1318:	0033d393          	srli	t2,t2,0x3
    131c:	7ff006b7          	lui	a3,0x7ff00
    1320:	07d2                	slli	a5,a5,0x14
    1322:	8ff5                	and	a5,a5,a3
    1324:	4682                	lw	a3,0(sp)
    1326:	03b2                	slli	t2,t2,0xc
    1328:	5082                	lw	ra,32(sp)
    132a:	4472                	lw	s0,28(sp)
    132c:	00c3d393          	srli	t2,t2,0xc
    1330:	01f69593          	slli	a1,a3,0x1f
    1334:	0077e7b3          	or	a5,a5,t2
    1338:	00b7e6b3          	or	a3,a5,a1
    133c:	44e2                	lw	s1,24(sp)
    133e:	853a                	mv	a0,a4
    1340:	85b6                	mv	a1,a3
    1342:	02410113          	addi	sp,sp,36
    1346:	8082                	ret
    1348:	4692                	lw	a3,4(sp)
    134a:	4501                	li	a0,0
    134c:	16fd                	addi	a3,a3,-1
    134e:	c236                	sw	a3,4(sp)
    1350:	b3b9                	j	109e <__divdf3+0x1f4>
    1352:	4722                	lw	a4,8(sp)
    1354:	83a2                	mv	t2,s0
    1356:	869a                	mv	a3,t1
    1358:	c03a                	sw	a4,0(sp)
    135a:	873e                	mv	a4,a5
    135c:	478d                	li	a5,3
    135e:	0af68e63          	beq	a3,a5,141a <__divdf3+0x570>
    1362:	4785                	li	a5,1
    1364:	0cf68263          	beq	a3,a5,1428 <__divdf3+0x57e>
    1368:	4789                	li	a5,2
    136a:	f4f69fe3          	bne	a3,a5,12c8 <__divdf3+0x41e>
    136e:	4381                	li	t2,0
    1370:	4701                	li	a4,0
    1372:	7ff00793          	li	a5,2047
    1376:	b75d                	j	131c <__divdf3+0x472>
    1378:	47b2                	lw	a5,12(sp)
    137a:	c03e                	sw	a5,0(sp)
    137c:	b7c5                	j	135c <__divdf3+0x4b2>
    137e:	000803b7          	lui	t2,0x80
    1382:	4701                	li	a4,0
    1384:	c002                	sw	zero,0(sp)
    1386:	468d                	li	a3,3
    1388:	bfd1                	j	135c <__divdf3+0x4b2>
    138a:	4685                	li	a3,1
    138c:	8e9d                	sub	a3,a3,a5
    138e:	03800613          	li	a2,56
    1392:	08d64b63          	blt	a2,a3,1428 <__divdf3+0x57e>
    1396:	467d                	li	a2,31
    1398:	04d64c63          	blt	a2,a3,13f0 <__divdf3+0x546>
    139c:	4792                	lw	a5,4(sp)
    139e:	00d75633          	srl	a2,a4,a3
    13a2:	41e78593          	addi	a1,a5,1054
    13a6:	00b397b3          	sll	a5,t2,a1
    13aa:	00b71733          	sll	a4,a4,a1
    13ae:	8fd1                	or	a5,a5,a2
    13b0:	00e03733          	snez	a4,a4
    13b4:	8f5d                	or	a4,a4,a5
    13b6:	00d3d3b3          	srl	t2,t2,a3
    13ba:	00777793          	andi	a5,a4,7
    13be:	cf81                	beqz	a5,13d6 <__divdf3+0x52c>
    13c0:	00f77793          	andi	a5,a4,15
    13c4:	4691                	li	a3,4
    13c6:	00d78863          	beq	a5,a3,13d6 <__divdf3+0x52c>
    13ca:	00470693          	addi	a3,a4,4
    13ce:	00e6b733          	sltu	a4,a3,a4
    13d2:	93ba                	add	t2,t2,a4
    13d4:	8736                	mv	a4,a3
    13d6:	008007b7          	lui	a5,0x800
    13da:	00f3f7b3          	and	a5,t2,a5
    13de:	eba1                	bnez	a5,142e <__divdf3+0x584>
    13e0:	01d39793          	slli	a5,t2,0x1d
    13e4:	830d                	srli	a4,a4,0x3
    13e6:	8f5d                	or	a4,a4,a5
    13e8:	0033d393          	srli	t2,t2,0x3
    13ec:	4781                	li	a5,0
    13ee:	b73d                	j	131c <__divdf3+0x472>
    13f0:	5605                	li	a2,-31
    13f2:	40f607b3          	sub	a5,a2,a5
    13f6:	02000613          	li	a2,32
    13fa:	00f3d7b3          	srl	a5,t2,a5
    13fe:	4581                	li	a1,0
    1400:	00c68763          	beq	a3,a2,140e <__divdf3+0x564>
    1404:	4692                	lw	a3,4(sp)
    1406:	43e68593          	addi	a1,a3,1086 # 7ff0043e <__heap_end+0x5fed043e>
    140a:	00b395b3          	sll	a1,t2,a1
    140e:	8f4d                	or	a4,a4,a1
    1410:	00e03733          	snez	a4,a4
    1414:	8f5d                	or	a4,a4,a5
    1416:	4381                	li	t2,0
    1418:	b74d                	j	13ba <__divdf3+0x510>
    141a:	000803b7          	lui	t2,0x80
    141e:	4701                	li	a4,0
    1420:	7ff00793          	li	a5,2047
    1424:	c002                	sw	zero,0(sp)
    1426:	bddd                	j	131c <__divdf3+0x472>
    1428:	4381                	li	t2,0
    142a:	4701                	li	a4,0
    142c:	b7c1                	j	13ec <__divdf3+0x542>
    142e:	4381                	li	t2,0
    1430:	4701                	li	a4,0
    1432:	4785                	li	a5,1
    1434:	b5e5                	j	131c <__divdf3+0x472>
    1436:	86ba                	mv	a3,a4
    1438:	8736                	mv	a4,a3
    143a:	b569                	j	12c4 <__divdf3+0x41a>

0000143c <__eqdf2>:
    143c:	001007b7          	lui	a5,0x100
    1440:	17fd                	addi	a5,a5,-1
    1442:	1151                	addi	sp,sp,-12
    1444:	00b7f2b3          	and	t0,a5,a1
    1448:	0145d713          	srli	a4,a1,0x14
    144c:	81fd                	srli	a1,a1,0x1f
    144e:	c422                	sw	s0,8(sp)
    1450:	c226                	sw	s1,4(sp)
    1452:	832a                	mv	t1,a0
    1454:	842a                	mv	s0,a0
    1456:	c02e                	sw	a1,0(sp)
    1458:	7ff77713          	andi	a4,a4,2047
    145c:	0146d593          	srli	a1,a3,0x14
    1460:	7ff00513          	li	a0,2047
    1464:	8ff5                	and	a5,a5,a3
    1466:	84b2                	mv	s1,a2
    1468:	7ff5f593          	andi	a1,a1,2047
    146c:	82fd                	srli	a3,a3,0x1f
    146e:	00a71a63          	bne	a4,a0,1482 <__eqdf2+0x46>
    1472:	0062e3b3          	or	t2,t0,t1
    1476:	4505                	li	a0,1
    1478:	02039a63          	bnez	t2,14ac <__eqdf2+0x70>
    147c:	02e59863          	bne	a1,a4,14ac <__eqdf2+0x70>
    1480:	a019                	j	1486 <__eqdf2+0x4a>
    1482:	00a59563          	bne	a1,a0,148c <__eqdf2+0x50>
    1486:	8e5d                	or	a2,a2,a5
    1488:	4505                	li	a0,1
    148a:	e20d                	bnez	a2,14ac <__eqdf2+0x70>
    148c:	4505                	li	a0,1
    148e:	00b71f63          	bne	a4,a1,14ac <__eqdf2+0x70>
    1492:	00f29d63          	bne	t0,a5,14ac <__eqdf2+0x70>
    1496:	00941b63          	bne	s0,s1,14ac <__eqdf2+0x70>
    149a:	4782                	lw	a5,0(sp)
    149c:	00d78c63          	beq	a5,a3,14b4 <__eqdf2+0x78>
    14a0:	00071663          	bnez	a4,14ac <__eqdf2+0x70>
    14a4:	0062e533          	or	a0,t0,t1
    14a8:	00a03533          	snez	a0,a0
    14ac:	4422                	lw	s0,8(sp)
    14ae:	4492                	lw	s1,4(sp)
    14b0:	0131                	addi	sp,sp,12
    14b2:	8082                	ret
    14b4:	4501                	li	a0,0
    14b6:	bfdd                	j	14ac <__eqdf2+0x70>

000014b8 <__gedf2>:
    14b8:	00100737          	lui	a4,0x100
    14bc:	1161                	addi	sp,sp,-8
    14be:	177d                	addi	a4,a4,-1
    14c0:	0145d313          	srli	t1,a1,0x14
    14c4:	00b772b3          	and	t0,a4,a1
    14c8:	c222                	sw	s0,4(sp)
    14ca:	c026                	sw	s1,0(sp)
    14cc:	87aa                	mv	a5,a0
    14ce:	83aa                	mv	t2,a0
    14d0:	7ff37313          	andi	t1,t1,2047
    14d4:	01f5d513          	srli	a0,a1,0x1f
    14d8:	7ff00493          	li	s1,2047
    14dc:	0146d593          	srli	a1,a3,0x14
    14e0:	8f75                	and	a4,a4,a3
    14e2:	8432                	mv	s0,a2
    14e4:	7ff5f593          	andi	a1,a1,2047
    14e8:	82fd                	srli	a3,a3,0x1f
    14ea:	00931763          	bne	t1,s1,14f8 <__gedf2+0x40>
    14ee:	00f2e4b3          	or	s1,t0,a5
    14f2:	c8a5                	beqz	s1,1562 <__gedf2+0xaa>
    14f4:	5579                	li	a0,-2
    14f6:	a825                	j	152e <__gedf2+0x76>
    14f8:	00959563          	bne	a1,s1,1502 <__gedf2+0x4a>
    14fc:	00c764b3          	or	s1,a4,a2
    1500:	f8f5                	bnez	s1,14f4 <__gedf2+0x3c>
    1502:	06031263          	bnez	t1,1566 <__gedf2+0xae>
    1506:	00f2e7b3          	or	a5,t0,a5
    150a:	0017b793          	seqz	a5,a5
    150e:	e199                	bnez	a1,1514 <__gedf2+0x5c>
    1510:	8e59                	or	a2,a2,a4
    1512:	c239                	beqz	a2,1558 <__gedf2+0xa0>
    1514:	00079a63          	bnez	a5,1528 <__gedf2+0x70>
    1518:	00d51463          	bne	a0,a3,1520 <__gedf2+0x68>
    151c:	0065dd63          	bge	a1,t1,1536 <__gedf2+0x7e>
    1520:	02050a63          	beqz	a0,1554 <__gedf2+0x9c>
    1524:	557d                	li	a0,-1
    1526:	a021                	j	152e <__gedf2+0x76>
    1528:	557d                	li	a0,-1
    152a:	c291                	beqz	a3,152e <__gedf2+0x76>
    152c:	8536                	mv	a0,a3
    152e:	4412                	lw	s0,4(sp)
    1530:	4482                	lw	s1,0(sp)
    1532:	0121                	addi	sp,sp,8
    1534:	8082                	ret
    1536:	00b35563          	bge	t1,a1,1540 <__gedf2+0x88>
    153a:	fe051ae3          	bnez	a0,152e <__gedf2+0x76>
    153e:	b7dd                	j	1524 <__gedf2+0x6c>
    1540:	fe5760e3          	bltu	a4,t0,1520 <__gedf2+0x68>
    1544:	00e29c63          	bne	t0,a4,155c <__gedf2+0xa4>
    1548:	fc746ce3          	bltu	s0,t2,1520 <__gedf2+0x68>
    154c:	fe83e7e3          	bltu	t2,s0,153a <__gedf2+0x82>
    1550:	4501                	li	a0,0
    1552:	bff1                	j	152e <__gedf2+0x76>
    1554:	4505                	li	a0,1
    1556:	bfe1                	j	152e <__gedf2+0x76>
    1558:	ffe5                	bnez	a5,1550 <__gedf2+0x98>
    155a:	b7d9                	j	1520 <__gedf2+0x68>
    155c:	fce2efe3          	bltu	t0,a4,153a <__gedf2+0x82>
    1560:	bfc5                	j	1550 <__gedf2+0x98>
    1562:	f8658de3          	beq	a1,t1,14fc <__gedf2+0x44>
    1566:	fa0599e3          	bnez	a1,1518 <__gedf2+0x60>
    156a:	4781                	li	a5,0
    156c:	b755                	j	1510 <__gedf2+0x58>

0000156e <__ledf2>:
    156e:	00100737          	lui	a4,0x100
    1572:	1161                	addi	sp,sp,-8
    1574:	177d                	addi	a4,a4,-1
    1576:	0145d313          	srli	t1,a1,0x14
    157a:	00b772b3          	and	t0,a4,a1
    157e:	c222                	sw	s0,4(sp)
    1580:	c026                	sw	s1,0(sp)
    1582:	87aa                	mv	a5,a0
    1584:	83aa                	mv	t2,a0
    1586:	7ff37313          	andi	t1,t1,2047
    158a:	01f5d513          	srli	a0,a1,0x1f
    158e:	7ff00493          	li	s1,2047
    1592:	0146d593          	srli	a1,a3,0x14
    1596:	8f75                	and	a4,a4,a3
    1598:	8432                	mv	s0,a2
    159a:	7ff5f593          	andi	a1,a1,2047
    159e:	82fd                	srli	a3,a3,0x1f
    15a0:	00931763          	bne	t1,s1,15ae <__ledf2+0x40>
    15a4:	00f2e4b3          	or	s1,t0,a5
    15a8:	c8a5                	beqz	s1,1618 <__ledf2+0xaa>
    15aa:	4509                	li	a0,2
    15ac:	a825                	j	15e4 <__ledf2+0x76>
    15ae:	00959563          	bne	a1,s1,15b8 <__ledf2+0x4a>
    15b2:	00c764b3          	or	s1,a4,a2
    15b6:	f8f5                	bnez	s1,15aa <__ledf2+0x3c>
    15b8:	06031263          	bnez	t1,161c <__ledf2+0xae>
    15bc:	00f2e7b3          	or	a5,t0,a5
    15c0:	0017b793          	seqz	a5,a5
    15c4:	e199                	bnez	a1,15ca <__ledf2+0x5c>
    15c6:	8e59                	or	a2,a2,a4
    15c8:	c239                	beqz	a2,160e <__ledf2+0xa0>
    15ca:	00079a63          	bnez	a5,15de <__ledf2+0x70>
    15ce:	00d51463          	bne	a0,a3,15d6 <__ledf2+0x68>
    15d2:	0065dd63          	bge	a1,t1,15ec <__ledf2+0x7e>
    15d6:	02050a63          	beqz	a0,160a <__ledf2+0x9c>
    15da:	557d                	li	a0,-1
    15dc:	a021                	j	15e4 <__ledf2+0x76>
    15de:	557d                	li	a0,-1
    15e0:	c291                	beqz	a3,15e4 <__ledf2+0x76>
    15e2:	8536                	mv	a0,a3
    15e4:	4412                	lw	s0,4(sp)
    15e6:	4482                	lw	s1,0(sp)
    15e8:	0121                	addi	sp,sp,8
    15ea:	8082                	ret
    15ec:	00b35563          	bge	t1,a1,15f6 <__ledf2+0x88>
    15f0:	fe051ae3          	bnez	a0,15e4 <__ledf2+0x76>
    15f4:	b7dd                	j	15da <__ledf2+0x6c>
    15f6:	fe5760e3          	bltu	a4,t0,15d6 <__ledf2+0x68>
    15fa:	00e29c63          	bne	t0,a4,1612 <__ledf2+0xa4>
    15fe:	fc746ce3          	bltu	s0,t2,15d6 <__ledf2+0x68>
    1602:	fe83e7e3          	bltu	t2,s0,15f0 <__ledf2+0x82>
    1606:	4501                	li	a0,0
    1608:	bff1                	j	15e4 <__ledf2+0x76>
    160a:	4505                	li	a0,1
    160c:	bfe1                	j	15e4 <__ledf2+0x76>
    160e:	ffe5                	bnez	a5,1606 <__ledf2+0x98>
    1610:	b7d9                	j	15d6 <__ledf2+0x68>
    1612:	fce2efe3          	bltu	t0,a4,15f0 <__ledf2+0x82>
    1616:	bfc5                	j	1606 <__ledf2+0x98>
    1618:	f8658de3          	beq	a1,t1,15b2 <__ledf2+0x44>
    161c:	fa0599e3          	bnez	a1,15ce <__ledf2+0x60>
    1620:	4781                	li	a5,0
    1622:	b755                	j	15c6 <__ledf2+0x58>

00001624 <__muldf3>:
    1624:	fd810113          	addi	sp,sp,-40
    1628:	0145d293          	srli	t0,a1,0x14
    162c:	01f5d793          	srli	a5,a1,0x1f
    1630:	d022                	sw	s0,32(sp)
    1632:	00c59313          	slli	t1,a1,0xc
    1636:	d206                	sw	ra,36(sp)
    1638:	ce26                	sw	s1,28(sp)
    163a:	7ff2f293          	andi	t0,t0,2047
    163e:	c43e                	sw	a5,8(sp)
    1640:	842a                	mv	s0,a0
    1642:	00c35313          	srli	t1,t1,0xc
    1646:	08028863          	beqz	t0,16d6 <__muldf3+0xb2>
    164a:	7ff00793          	li	a5,2047
    164e:	0ef28763          	beq	t0,a5,173c <__muldf3+0x118>
    1652:	01d55793          	srli	a5,a0,0x1d
    1656:	030e                	slli	t1,t1,0x3
    1658:	0067e333          	or	t1,a5,t1
    165c:	008007b7          	lui	a5,0x800
    1660:	00f36333          	or	t1,t1,a5
    1664:	00351593          	slli	a1,a0,0x3
    1668:	c0128293          	addi	t0,t0,-1023
    166c:	4481                	li	s1,0
    166e:	0146d513          	srli	a0,a3,0x14
    1672:	01f6d793          	srli	a5,a3,0x1f
    1676:	00c69413          	slli	s0,a3,0xc
    167a:	7ff57513          	andi	a0,a0,2047
    167e:	c63e                	sw	a5,12(sp)
    1680:	8031                	srli	s0,s0,0xc
    1682:	cd71                	beqz	a0,175e <__muldf3+0x13a>
    1684:	7ff00793          	li	a5,2047
    1688:	14f50463          	beq	a0,a5,17d0 <__muldf3+0x1ac>
    168c:	01d65793          	srli	a5,a2,0x1d
    1690:	040e                	slli	s0,s0,0x3
    1692:	8c5d                	or	s0,s0,a5
    1694:	008007b7          	lui	a5,0x800
    1698:	8c5d                	or	s0,s0,a5
    169a:	00361713          	slli	a4,a2,0x3
    169e:	c0150513          	addi	a0,a0,-1023
    16a2:	4781                	li	a5,0
    16a4:	4632                	lw	a2,12(sp)
    16a6:	46a2                	lw	a3,8(sp)
    16a8:	8eb1                	xor	a3,a3,a2
    16aa:	c036                	sw	a3,0(sp)
    16ac:	00a286b3          	add	a3,t0,a0
    16b0:	c836                	sw	a3,16(sp)
    16b2:	0685                	addi	a3,a3,1
    16b4:	c236                	sw	a3,4(sp)
    16b6:	00249693          	slli	a3,s1,0x2
    16ba:	8edd                	or	a3,a3,a5
    16bc:	16fd                	addi	a3,a3,-1
    16be:	4639                	li	a2,14
    16c0:	12d66963          	bltu	a2,a3,17f2 <__muldf3+0x1ce>
    16c4:	00003617          	auipc	a2,0x3
    16c8:	53860613          	addi	a2,a2,1336 # 4bfc <__srodata+0x3c>
    16cc:	068a                	slli	a3,a3,0x2
    16ce:	96b2                	add	a3,a3,a2
    16d0:	4294                	lw	a3,0(a3)
    16d2:	96b2                	add	a3,a3,a2
    16d4:	8682                	jr	a3
    16d6:	00a365b3          	or	a1,t1,a0
    16da:	c9ad                	beqz	a1,174c <__muldf3+0x128>
    16dc:	c636                	sw	a3,12(sp)
    16de:	c232                	sw	a2,4(sp)
    16e0:	02030f63          	beqz	t1,171e <__muldf3+0xfa>
    16e4:	851a                	mv	a0,t1
    16e6:	c01a                	sw	t1,0(sp)
    16e8:	29b000ef          	jal	ra,2182 <__clzsi2>
    16ec:	4302                	lw	t1,0(sp)
    16ee:	4612                	lw	a2,4(sp)
    16f0:	46b2                	lw	a3,12(sp)
    16f2:	ff550713          	addi	a4,a0,-11
    16f6:	47f1                	li	a5,28
    16f8:	02e7cc63          	blt	a5,a4,1730 <__muldf3+0x10c>
    16fc:	47f5                	li	a5,29
    16fe:	ff850593          	addi	a1,a0,-8
    1702:	8f99                	sub	a5,a5,a4
    1704:	00b31333          	sll	t1,t1,a1
    1708:	00f457b3          	srl	a5,s0,a5
    170c:	0067e333          	or	t1,a5,t1
    1710:	00b415b3          	sll	a1,s0,a1
    1714:	c0d00293          	li	t0,-1011
    1718:	40a282b3          	sub	t0,t0,a0
    171c:	bf81                	j	166c <__muldf3+0x48>
    171e:	c01a                	sw	t1,0(sp)
    1720:	263000ef          	jal	ra,2182 <__clzsi2>
    1724:	46b2                	lw	a3,12(sp)
    1726:	4612                	lw	a2,4(sp)
    1728:	4302                	lw	t1,0(sp)
    172a:	02050513          	addi	a0,a0,32
    172e:	b7d1                	j	16f2 <__muldf3+0xce>
    1730:	fd850313          	addi	t1,a0,-40
    1734:	00641333          	sll	t1,s0,t1
    1738:	4581                	li	a1,0
    173a:	bfe9                	j	1714 <__muldf3+0xf0>
    173c:	00a365b3          	or	a1,t1,a0
    1740:	c991                	beqz	a1,1754 <__muldf3+0x130>
    1742:	85aa                	mv	a1,a0
    1744:	7ff00293          	li	t0,2047
    1748:	448d                	li	s1,3
    174a:	b715                	j	166e <__muldf3+0x4a>
    174c:	4301                	li	t1,0
    174e:	4281                	li	t0,0
    1750:	4485                	li	s1,1
    1752:	bf31                	j	166e <__muldf3+0x4a>
    1754:	4301                	li	t1,0
    1756:	7ff00293          	li	t0,2047
    175a:	4489                	li	s1,2
    175c:	bf09                	j	166e <__muldf3+0x4a>
    175e:	00c46733          	or	a4,s0,a2
    1762:	cf3d                	beqz	a4,17e0 <__muldf3+0x1bc>
    1764:	04040263          	beqz	s0,17a8 <__muldf3+0x184>
    1768:	8522                	mv	a0,s0
    176a:	ca32                	sw	a2,20(sp)
    176c:	c81a                	sw	t1,16(sp)
    176e:	c22e                	sw	a1,4(sp)
    1770:	c016                	sw	t0,0(sp)
    1772:	211000ef          	jal	ra,2182 <__clzsi2>
    1776:	4282                	lw	t0,0(sp)
    1778:	4592                	lw	a1,4(sp)
    177a:	4342                	lw	t1,16(sp)
    177c:	4652                	lw	a2,20(sp)
    177e:	ff550693          	addi	a3,a0,-11
    1782:	47f1                	li	a5,28
    1784:	04d7c063          	blt	a5,a3,17c4 <__muldf3+0x1a0>
    1788:	47f5                	li	a5,29
    178a:	ff850713          	addi	a4,a0,-8
    178e:	8f95                	sub	a5,a5,a3
    1790:	00e41433          	sll	s0,s0,a4
    1794:	00f657b3          	srl	a5,a2,a5
    1798:	8c5d                	or	s0,s0,a5
    179a:	00e61733          	sll	a4,a2,a4
    179e:	c0d00793          	li	a5,-1011
    17a2:	40a78533          	sub	a0,a5,a0
    17a6:	bdf5                	j	16a2 <__muldf3+0x7e>
    17a8:	8532                	mv	a0,a2
    17aa:	ca1a                	sw	t1,20(sp)
    17ac:	c82e                	sw	a1,16(sp)
    17ae:	c216                	sw	t0,4(sp)
    17b0:	c032                	sw	a2,0(sp)
    17b2:	1d1000ef          	jal	ra,2182 <__clzsi2>
    17b6:	4352                	lw	t1,20(sp)
    17b8:	45c2                	lw	a1,16(sp)
    17ba:	4292                	lw	t0,4(sp)
    17bc:	4602                	lw	a2,0(sp)
    17be:	02050513          	addi	a0,a0,32
    17c2:	bf75                	j	177e <__muldf3+0x15a>
    17c4:	fd850413          	addi	s0,a0,-40
    17c8:	00861433          	sll	s0,a2,s0
    17cc:	4701                	li	a4,0
    17ce:	bfc1                	j	179e <__muldf3+0x17a>
    17d0:	00c46733          	or	a4,s0,a2
    17d4:	cb11                	beqz	a4,17e8 <__muldf3+0x1c4>
    17d6:	8732                	mv	a4,a2
    17d8:	7ff00513          	li	a0,2047
    17dc:	478d                	li	a5,3
    17de:	b5d9                	j	16a4 <__muldf3+0x80>
    17e0:	4401                	li	s0,0
    17e2:	4501                	li	a0,0
    17e4:	4785                	li	a5,1
    17e6:	bd7d                	j	16a4 <__muldf3+0x80>
    17e8:	4401                	li	s0,0
    17ea:	7ff00513          	li	a0,2047
    17ee:	4789                	li	a5,2
    17f0:	bd55                	j	16a4 <__muldf3+0x80>
    17f2:	0105d613          	srli	a2,a1,0x10
    17f6:	01075493          	srli	s1,a4,0x10
    17fa:	029606b3          	mul	a3,a2,s1
    17fe:	67c1                	lui	a5,0x10
    1800:	17fd                	addi	a5,a5,-1
    1802:	8dfd                	and	a1,a1,a5
    1804:	8f7d                	and	a4,a4,a5
    1806:	02e603b3          	mul	t2,a2,a4
    180a:	c436                	sw	a3,8(sp)
    180c:	02b486b3          	mul	a3,s1,a1
    1810:	02e58533          	mul	a0,a1,a4
    1814:	969e                	add	a3,a3,t2
    1816:	82b6                	mv	t0,a3
    1818:	01055693          	srli	a3,a0,0x10
    181c:	9696                	add	a3,a3,t0
    181e:	0076f763          	bgeu	a3,t2,182c <__muldf3+0x208>
    1822:	029603b3          	mul	t2,a2,s1
    1826:	62c1                	lui	t0,0x10
    1828:	929e                	add	t0,t0,t2
    182a:	c416                	sw	t0,8(sp)
    182c:	0106d293          	srli	t0,a3,0x10
    1830:	8efd                	and	a3,a3,a5
    1832:	8d7d                	and	a0,a0,a5
    1834:	06c2                	slli	a3,a3,0x10
    1836:	96aa                	add	a3,a3,a0
    1838:	8fe1                	and	a5,a5,s0
    183a:	01045513          	srli	a0,s0,0x10
    183e:	02f603b3          	mul	t2,a2,a5
    1842:	ca36                	sw	a3,20(sp)
    1844:	02f586b3          	mul	a3,a1,a5
    1848:	02b505b3          	mul	a1,a0,a1
    184c:	0106d413          	srli	s0,a3,0x10
    1850:	959e                	add	a1,a1,t2
    1852:	95a2                	add	a1,a1,s0
    1854:	02a60633          	mul	a2,a2,a0
    1858:	0075f463          	bgeu	a1,t2,1860 <__muldf3+0x23c>
    185c:	63c1                	lui	t2,0x10
    185e:	961e                	add	a2,a2,t2
    1860:	0105d393          	srli	t2,a1,0x10
    1864:	961e                	add	a2,a2,t2
    1866:	c632                	sw	a2,12(sp)
    1868:	6641                	lui	a2,0x10
    186a:	fff60393          	addi	t2,a2,-1 # ffff <__ctor_end__+0xa6e7>
    186e:	0075f5b3          	and	a1,a1,t2
    1872:	0076f6b3          	and	a3,a3,t2
    1876:	05c2                	slli	a1,a1,0x10
    1878:	95b6                	add	a1,a1,a3
    187a:	00b286b3          	add	a3,t0,a1
    187e:	01035293          	srli	t0,t1,0x10
    1882:	00737333          	and	t1,t1,t2
    1886:	026703b3          	mul	t2,a4,t1
    188a:	cc36                	sw	a3,24(sp)
    188c:	02e28733          	mul	a4,t0,a4
    1890:	026486b3          	mul	a3,s1,t1
    1894:	02548433          	mul	s0,s1,t0
    1898:	96ba                	add	a3,a3,a4
    189a:	0103d493          	srli	s1,t2,0x10
    189e:	96a6                	add	a3,a3,s1
    18a0:	00e6f363          	bgeu	a3,a4,18a6 <__muldf3+0x282>
    18a4:	9432                	add	s0,s0,a2
    18a6:	0106d613          	srli	a2,a3,0x10
    18aa:	6741                	lui	a4,0x10
    18ac:	9622                	add	a2,a2,s0
    18ae:	fff70413          	addi	s0,a4,-1 # ffff <__ctor_end__+0xa6e7>
    18b2:	026784b3          	mul	s1,a5,t1
    18b6:	8ee1                	and	a3,a3,s0
    18b8:	06c2                	slli	a3,a3,0x10
    18ba:	0083f3b3          	and	t2,t2,s0
    18be:	969e                	add	a3,a3,t2
    18c0:	02f287b3          	mul	a5,t0,a5
    18c4:	02650333          	mul	t1,a0,t1
    18c8:	025502b3          	mul	t0,a0,t0
    18cc:	933e                	add	t1,t1,a5
    18ce:	0104d513          	srli	a0,s1,0x10
    18d2:	932a                	add	t1,t1,a0
    18d4:	00f37363          	bgeu	t1,a5,18da <__muldf3+0x2b6>
    18d8:	92ba                	add	t0,t0,a4
    18da:	4762                	lw	a4,24(sp)
    18dc:	47a2                	lw	a5,8(sp)
    18de:	6541                	lui	a0,0x10
    18e0:	157d                	addi	a0,a0,-1
    18e2:	97ba                	add	a5,a5,a4
    18e4:	00a37733          	and	a4,t1,a0
    18e8:	0742                	slli	a4,a4,0x10
    18ea:	8ce9                	and	s1,s1,a0
    18ec:	94ba                	add	s1,s1,a4
    18ee:	4732                	lw	a4,12(sp)
    18f0:	00b7b5b3          	sltu	a1,a5,a1
    18f4:	97b6                	add	a5,a5,a3
    18f6:	94ba                	add	s1,s1,a4
    18f8:	00b48533          	add	a0,s1,a1
    18fc:	00d7b6b3          	sltu	a3,a5,a3
    1900:	00c50433          	add	s0,a0,a2
    1904:	00d403b3          	add	t2,s0,a3
    1908:	00e4b4b3          	sltu	s1,s1,a4
    190c:	00b535b3          	sltu	a1,a0,a1
    1910:	00d3b6b3          	sltu	a3,t2,a3
    1914:	8dc5                	or	a1,a1,s1
    1916:	01035313          	srli	t1,t1,0x10
    191a:	00c43433          	sltu	s0,s0,a2
    191e:	8c55                	or	s0,s0,a3
    1920:	959a                	add	a1,a1,t1
    1922:	942e                	add	s0,s0,a1
    1924:	46d2                	lw	a3,20(sp)
    1926:	92a2                	add	t0,t0,s0
    1928:	0173d713          	srli	a4,t2,0x17
    192c:	00929413          	slli	s0,t0,0x9
    1930:	8c59                	or	s0,s0,a4
    1932:	00979713          	slli	a4,a5,0x9
    1936:	8f55                	or	a4,a4,a3
    1938:	83dd                	srli	a5,a5,0x17
    193a:	00e03733          	snez	a4,a4
    193e:	8f5d                	or	a4,a4,a5
    1940:	010007b7          	lui	a5,0x1000
    1944:	03a6                	slli	t2,t2,0x9
    1946:	8fe1                	and	a5,a5,s0
    1948:	00776733          	or	a4,a4,t2
    194c:	c7dd                	beqz	a5,19fa <__muldf3+0x3d6>
    194e:	00175793          	srli	a5,a4,0x1
    1952:	8b05                	andi	a4,a4,1
    1954:	8f5d                	or	a4,a4,a5
    1956:	01f41793          	slli	a5,s0,0x1f
    195a:	8f5d                	or	a4,a4,a5
    195c:	8005                	srli	s0,s0,0x1
    195e:	4792                	lw	a5,4(sp)
    1960:	3ff78793          	addi	a5,a5,1023 # 10003ff <__min_heap_size+0xfe03ff>
    1964:	08f05e63          	blez	a5,1a00 <__muldf3+0x3dc>
    1968:	00777693          	andi	a3,a4,7
    196c:	ce81                	beqz	a3,1984 <__muldf3+0x360>
    196e:	00f77693          	andi	a3,a4,15
    1972:	4611                	li	a2,4
    1974:	00c68863          	beq	a3,a2,1984 <__muldf3+0x360>
    1978:	00470693          	addi	a3,a4,4
    197c:	00e6b733          	sltu	a4,a3,a4
    1980:	943a                	add	s0,s0,a4
    1982:	8736                	mv	a4,a3
    1984:	010006b7          	lui	a3,0x1000
    1988:	8ee1                	and	a3,a3,s0
    198a:	ca81                	beqz	a3,199a <__muldf3+0x376>
    198c:	ff0007b7          	lui	a5,0xff000
    1990:	17fd                	addi	a5,a5,-1
    1992:	8c7d                	and	s0,s0,a5
    1994:	4792                	lw	a5,4(sp)
    1996:	40078793          	addi	a5,a5,1024 # ff000400 <__heap_end+0xdefd0400>
    199a:	7fe00693          	li	a3,2046
    199e:	0ef6ce63          	blt	a3,a5,1a9a <__muldf3+0x476>
    19a2:	01d41693          	slli	a3,s0,0x1d
    19a6:	830d                	srli	a4,a4,0x3
    19a8:	8f55                	or	a4,a4,a3
    19aa:	800d                	srli	s0,s0,0x3
    19ac:	7ff006b7          	lui	a3,0x7ff00
    19b0:	07d2                	slli	a5,a5,0x14
    19b2:	0432                	slli	s0,s0,0xc
    19b4:	8ff5                	and	a5,a5,a3
    19b6:	8031                	srli	s0,s0,0xc
    19b8:	8c5d                	or	s0,s0,a5
    19ba:	4782                	lw	a5,0(sp)
    19bc:	5092                	lw	ra,36(sp)
    19be:	44f2                	lw	s1,28(sp)
    19c0:	07fe                	slli	a5,a5,0x1f
    19c2:	00f466b3          	or	a3,s0,a5
    19c6:	5402                	lw	s0,32(sp)
    19c8:	853a                	mv	a0,a4
    19ca:	85b6                	mv	a1,a3
    19cc:	02810113          	addi	sp,sp,40
    19d0:	8082                	ret
    19d2:	47a2                	lw	a5,8(sp)
    19d4:	c03e                	sw	a5,0(sp)
    19d6:	841a                	mv	s0,t1
    19d8:	872e                	mv	a4,a1
    19da:	87a6                	mv	a5,s1
    19dc:	4689                	li	a3,2
    19de:	0ad78e63          	beq	a5,a3,1a9a <__muldf3+0x476>
    19e2:	468d                	li	a3,3
    19e4:	0ad78463          	beq	a5,a3,1a8c <__muldf3+0x468>
    19e8:	4685                	li	a3,1
    19ea:	f6d79ae3          	bne	a5,a3,195e <__muldf3+0x33a>
    19ee:	4401                	li	s0,0
    19f0:	4701                	li	a4,0
    19f2:	a0b5                	j	1a5e <__muldf3+0x43a>
    19f4:	46b2                	lw	a3,12(sp)
    19f6:	c036                	sw	a3,0(sp)
    19f8:	b7d5                	j	19dc <__muldf3+0x3b8>
    19fa:	47c2                	lw	a5,16(sp)
    19fc:	c23e                	sw	a5,4(sp)
    19fe:	b785                	j	195e <__muldf3+0x33a>
    1a00:	4605                	li	a2,1
    1a02:	8e1d                	sub	a2,a2,a5
    1a04:	03800693          	li	a3,56
    1a08:	fec6c3e3          	blt	a3,a2,19ee <__muldf3+0x3ca>
    1a0c:	46fd                	li	a3,31
    1a0e:	04c6ca63          	blt	a3,a2,1a62 <__muldf3+0x43e>
    1a12:	4792                	lw	a5,4(sp)
    1a14:	00c755b3          	srl	a1,a4,a2
    1a18:	41e78793          	addi	a5,a5,1054
    1a1c:	00f416b3          	sll	a3,s0,a5
    1a20:	00f71733          	sll	a4,a4,a5
    1a24:	8ecd                	or	a3,a3,a1
    1a26:	00e03733          	snez	a4,a4
    1a2a:	8f55                	or	a4,a4,a3
    1a2c:	00c45433          	srl	s0,s0,a2
    1a30:	00777793          	andi	a5,a4,7
    1a34:	cf81                	beqz	a5,1a4c <__muldf3+0x428>
    1a36:	00f77793          	andi	a5,a4,15
    1a3a:	4691                	li	a3,4
    1a3c:	00d78863          	beq	a5,a3,1a4c <__muldf3+0x428>
    1a40:	00470793          	addi	a5,a4,4
    1a44:	00e7b733          	sltu	a4,a5,a4
    1a48:	943a                	add	s0,s0,a4
    1a4a:	873e                	mv	a4,a5
    1a4c:	008007b7          	lui	a5,0x800
    1a50:	8fe1                	and	a5,a5,s0
    1a52:	eba9                	bnez	a5,1aa4 <__muldf3+0x480>
    1a54:	01d41793          	slli	a5,s0,0x1d
    1a58:	830d                	srli	a4,a4,0x3
    1a5a:	8f5d                	or	a4,a4,a5
    1a5c:	800d                	srli	s0,s0,0x3
    1a5e:	4781                	li	a5,0
    1a60:	b7b1                	j	19ac <__muldf3+0x388>
    1a62:	5685                	li	a3,-31
    1a64:	40f687b3          	sub	a5,a3,a5
    1a68:	02000593          	li	a1,32
    1a6c:	00f457b3          	srl	a5,s0,a5
    1a70:	4681                	li	a3,0
    1a72:	00b60763          	beq	a2,a1,1a80 <__muldf3+0x45c>
    1a76:	4692                	lw	a3,4(sp)
    1a78:	43e68693          	addi	a3,a3,1086 # 7ff0043e <__heap_end+0x5fed043e>
    1a7c:	00d416b3          	sll	a3,s0,a3
    1a80:	8f55                	or	a4,a4,a3
    1a82:	00e03733          	snez	a4,a4
    1a86:	8f5d                	or	a4,a4,a5
    1a88:	4401                	li	s0,0
    1a8a:	b75d                	j	1a30 <__muldf3+0x40c>
    1a8c:	00080437          	lui	s0,0x80
    1a90:	4701                	li	a4,0
    1a92:	7ff00793          	li	a5,2047
    1a96:	c002                	sw	zero,0(sp)
    1a98:	bf11                	j	19ac <__muldf3+0x388>
    1a9a:	4401                	li	s0,0
    1a9c:	4701                	li	a4,0
    1a9e:	7ff00793          	li	a5,2047
    1aa2:	b729                	j	19ac <__muldf3+0x388>
    1aa4:	4401                	li	s0,0
    1aa6:	4701                	li	a4,0
    1aa8:	4785                	li	a5,1
    1aaa:	b709                	j	19ac <__muldf3+0x388>

00001aac <__subdf3>:
    1aac:	00100337          	lui	t1,0x100
    1ab0:	137d                	addi	t1,t1,-1
    1ab2:	1131                	addi	sp,sp,-20
    1ab4:	00b377b3          	and	a5,t1,a1
    1ab8:	0145d713          	srli	a4,a1,0x14
    1abc:	c426                	sw	s1,8(sp)
    1abe:	078e                	slli	a5,a5,0x3
    1ac0:	7ff77493          	andi	s1,a4,2047
    1ac4:	01d55713          	srli	a4,a0,0x1d
    1ac8:	8fd9                	or	a5,a5,a4
    1aca:	00d37733          	and	a4,t1,a3
    1ace:	c622                	sw	s0,12(sp)
    1ad0:	0146d313          	srli	t1,a3,0x14
    1ad4:	01f5d413          	srli	s0,a1,0x1f
    1ad8:	070e                	slli	a4,a4,0x3
    1ada:	01d65593          	srli	a1,a2,0x1d
    1ade:	8f4d                	or	a4,a4,a1
    1ae0:	c806                	sw	ra,16(sp)
    1ae2:	7ff37313          	andi	t1,t1,2047
    1ae6:	7ff00593          	li	a1,2047
    1aea:	050e                	slli	a0,a0,0x3
    1aec:	82fd                	srli	a3,a3,0x1f
    1aee:	060e                	slli	a2,a2,0x3
    1af0:	00b31563          	bne	t1,a1,1afa <__subdf3+0x4e>
    1af4:	00c765b3          	or	a1,a4,a2
    1af8:	e199                	bnez	a1,1afe <__subdf3+0x52>
    1afa:	0016c693          	xori	a3,a3,1
    1afe:	406482b3          	sub	t0,s1,t1
    1b02:	22869563          	bne	a3,s0,1d2c <__subdf3+0x280>
    1b06:	0e505263          	blez	t0,1bea <__subdf3+0x13e>
    1b0a:	02031863          	bnez	t1,1b3a <__subdf3+0x8e>
    1b0e:	00c766b3          	or	a3,a4,a2
    1b12:	56068f63          	beqz	a3,2090 <__subdf3+0x5e4>
    1b16:	fff28593          	addi	a1,t0,-1 # ffff <__ctor_end__+0xa6e7>
    1b1a:	e989                	bnez	a1,1b2c <__subdf3+0x80>
    1b1c:	962a                	add	a2,a2,a0
    1b1e:	00a63533          	sltu	a0,a2,a0
    1b22:	97ba                	add	a5,a5,a4
    1b24:	97aa                	add	a5,a5,a0
    1b26:	8532                	mv	a0,a2
    1b28:	4485                	li	s1,1
    1b2a:	a8b9                	j	1b88 <__subdf3+0xdc>
    1b2c:	7ff00693          	li	a3,2047
    1b30:	00d29d63          	bne	t0,a3,1b4a <__subdf3+0x9e>
    1b34:	7ff00493          	li	s1,2047
    1b38:	aa79                	j	1cd6 <__subdf3+0x22a>
    1b3a:	7ff00693          	li	a3,2047
    1b3e:	18d48c63          	beq	s1,a3,1cd6 <__subdf3+0x22a>
    1b42:	008006b7          	lui	a3,0x800
    1b46:	8f55                	or	a4,a4,a3
    1b48:	8596                	mv	a1,t0
    1b4a:	03800693          	li	a3,56
    1b4e:	08b6ca63          	blt	a3,a1,1be2 <__subdf3+0x136>
    1b52:	46fd                	li	a3,31
    1b54:	06b6c163          	blt	a3,a1,1bb6 <__subdf3+0x10a>
    1b58:	02000313          	li	t1,32
    1b5c:	40b30333          	sub	t1,t1,a1
    1b60:	006716b3          	sll	a3,a4,t1
    1b64:	00b652b3          	srl	t0,a2,a1
    1b68:	00661633          	sll	a2,a2,t1
    1b6c:	0056e6b3          	or	a3,a3,t0
    1b70:	00c03633          	snez	a2,a2
    1b74:	8e55                	or	a2,a2,a3
    1b76:	00b75733          	srl	a4,a4,a1
    1b7a:	962a                	add	a2,a2,a0
    1b7c:	00a63533          	sltu	a0,a2,a0
    1b80:	973e                	add	a4,a4,a5
    1b82:	00a707b3          	add	a5,a4,a0
    1b86:	8532                	mv	a0,a2
    1b88:	00800737          	lui	a4,0x800
    1b8c:	8f7d                	and	a4,a4,a5
    1b8e:	14070463          	beqz	a4,1cd6 <__subdf3+0x22a>
    1b92:	0485                	addi	s1,s1,1
    1b94:	7ff00713          	li	a4,2047
    1b98:	48e48c63          	beq	s1,a4,2030 <__subdf3+0x584>
    1b9c:	ff800737          	lui	a4,0xff800
    1ba0:	177d                	addi	a4,a4,-1
    1ba2:	8ff9                	and	a5,a5,a4
    1ba4:	00155713          	srli	a4,a0,0x1
    1ba8:	8905                	andi	a0,a0,1
    1baa:	8d59                	or	a0,a0,a4
    1bac:	01f79713          	slli	a4,a5,0x1f
    1bb0:	8d59                	or	a0,a0,a4
    1bb2:	8385                	srli	a5,a5,0x1
    1bb4:	a20d                	j	1cd6 <__subdf3+0x22a>
    1bb6:	fe058693          	addi	a3,a1,-32
    1bba:	02000293          	li	t0,32
    1bbe:	00d756b3          	srl	a3,a4,a3
    1bc2:	4301                	li	t1,0
    1bc4:	00558863          	beq	a1,t0,1bd4 <__subdf3+0x128>
    1bc8:	04000313          	li	t1,64
    1bcc:	40b305b3          	sub	a1,t1,a1
    1bd0:	00b71333          	sll	t1,a4,a1
    1bd4:	00c36633          	or	a2,t1,a2
    1bd8:	00c03633          	snez	a2,a2
    1bdc:	8e55                	or	a2,a2,a3
    1bde:	4701                	li	a4,0
    1be0:	bf69                	j	1b7a <__subdf3+0xce>
    1be2:	8e59                	or	a2,a2,a4
    1be4:	00c03633          	snez	a2,a2
    1be8:	bfdd                	j	1bde <__subdf3+0x132>
    1bea:	0a028a63          	beqz	t0,1c9e <__subdf3+0x1f2>
    1bee:	409305b3          	sub	a1,t1,s1
    1bf2:	e48d                	bnez	s1,1c1c <__subdf3+0x170>
    1bf4:	00a7e6b3          	or	a3,a5,a0
    1bf8:	42068363          	beqz	a3,201e <__subdf3+0x572>
    1bfc:	fff58693          	addi	a3,a1,-1
    1c00:	e699                	bnez	a3,1c0e <__subdf3+0x162>
    1c02:	9532                	add	a0,a0,a2
    1c04:	97ba                	add	a5,a5,a4
    1c06:	00c53633          	sltu	a2,a0,a2
    1c0a:	97b2                	add	a5,a5,a2
    1c0c:	bf31                	j	1b28 <__subdf3+0x7c>
    1c0e:	7ff00293          	li	t0,2047
    1c12:	00559d63          	bne	a1,t0,1c2c <__subdf3+0x180>
    1c16:	87ba                	mv	a5,a4
    1c18:	8532                	mv	a0,a2
    1c1a:	bf29                	j	1b34 <__subdf3+0x88>
    1c1c:	7ff00693          	li	a3,2047
    1c20:	fed30be3          	beq	t1,a3,1c16 <__subdf3+0x16a>
    1c24:	008006b7          	lui	a3,0x800
    1c28:	8fd5                	or	a5,a5,a3
    1c2a:	86ae                	mv	a3,a1
    1c2c:	03800593          	li	a1,56
    1c30:	06d5c363          	blt	a1,a3,1c96 <__subdf3+0x1ea>
    1c34:	45fd                	li	a1,31
    1c36:	02d5ca63          	blt	a1,a3,1c6a <__subdf3+0x1be>
    1c3a:	02000293          	li	t0,32
    1c3e:	40d282b3          	sub	t0,t0,a3
    1c42:	005795b3          	sll	a1,a5,t0
    1c46:	00d553b3          	srl	t2,a0,a3
    1c4a:	00551533          	sll	a0,a0,t0
    1c4e:	0075e5b3          	or	a1,a1,t2
    1c52:	00a03533          	snez	a0,a0
    1c56:	8d4d                	or	a0,a0,a1
    1c58:	00d7d7b3          	srl	a5,a5,a3
    1c5c:	9532                	add	a0,a0,a2
    1c5e:	97ba                	add	a5,a5,a4
    1c60:	00c53633          	sltu	a2,a0,a2
    1c64:	97b2                	add	a5,a5,a2
    1c66:	849a                	mv	s1,t1
    1c68:	b705                	j	1b88 <__subdf3+0xdc>
    1c6a:	fe068593          	addi	a1,a3,-32 # 7fffe0 <__min_heap_size+0x7dffe0>
    1c6e:	02000393          	li	t2,32
    1c72:	00b7d5b3          	srl	a1,a5,a1
    1c76:	4281                	li	t0,0
    1c78:	00768863          	beq	a3,t2,1c88 <__subdf3+0x1dc>
    1c7c:	04000293          	li	t0,64
    1c80:	40d286b3          	sub	a3,t0,a3
    1c84:	00d792b3          	sll	t0,a5,a3
    1c88:	00a2e533          	or	a0,t0,a0
    1c8c:	00a03533          	snez	a0,a0
    1c90:	8d4d                	or	a0,a0,a1
    1c92:	4781                	li	a5,0
    1c94:	b7e1                	j	1c5c <__subdf3+0x1b0>
    1c96:	8d5d                	or	a0,a0,a5
    1c98:	00a03533          	snez	a0,a0
    1c9c:	bfdd                	j	1c92 <__subdf3+0x1e6>
    1c9e:	00148693          	addi	a3,s1,1
    1ca2:	7fe6f593          	andi	a1,a3,2046
    1ca6:	e1bd                	bnez	a1,1d0c <__subdf3+0x260>
    1ca8:	00a7e6b3          	or	a3,a5,a0
    1cac:	e4a9                	bnez	s1,1cf6 <__subdf3+0x24a>
    1cae:	36068c63          	beqz	a3,2026 <__subdf3+0x57a>
    1cb2:	00c766b3          	or	a3,a4,a2
    1cb6:	c285                	beqz	a3,1cd6 <__subdf3+0x22a>
    1cb8:	962a                	add	a2,a2,a0
    1cba:	97ba                	add	a5,a5,a4
    1cbc:	00a63533          	sltu	a0,a2,a0
    1cc0:	97aa                	add	a5,a5,a0
    1cc2:	00800737          	lui	a4,0x800
    1cc6:	8f7d                	and	a4,a4,a5
    1cc8:	8532                	mv	a0,a2
    1cca:	c711                	beqz	a4,1cd6 <__subdf3+0x22a>
    1ccc:	ff800737          	lui	a4,0xff800
    1cd0:	177d                	addi	a4,a4,-1
    1cd2:	8ff9                	and	a5,a5,a4
    1cd4:	4485                	li	s1,1
    1cd6:	00757713          	andi	a4,a0,7
    1cda:	34070d63          	beqz	a4,2034 <__subdf3+0x588>
    1cde:	00f57713          	andi	a4,a0,15
    1ce2:	4691                	li	a3,4
    1ce4:	34d70863          	beq	a4,a3,2034 <__subdf3+0x588>
    1ce8:	00450713          	addi	a4,a0,4 # 10004 <__ctor_end__+0xa6ec>
    1cec:	00a73533          	sltu	a0,a4,a0
    1cf0:	97aa                	add	a5,a5,a0
    1cf2:	853a                	mv	a0,a4
    1cf4:	a681                	j	2034 <__subdf3+0x588>
    1cf6:	d285                	beqz	a3,1c16 <__subdf3+0x16a>
    1cf8:	8e59                	or	a2,a2,a4
    1cfa:	e2060de3          	beqz	a2,1b34 <__subdf3+0x88>
    1cfe:	4401                	li	s0,0
    1d00:	004007b7          	lui	a5,0x400
    1d04:	4501                	li	a0,0
    1d06:	7ff00493          	li	s1,2047
    1d0a:	a62d                	j	2034 <__subdf3+0x588>
    1d0c:	7ff00593          	li	a1,2047
    1d10:	30b68e63          	beq	a3,a1,202c <__subdf3+0x580>
    1d14:	962a                	add	a2,a2,a0
    1d16:	00a63533          	sltu	a0,a2,a0
    1d1a:	97ba                	add	a5,a5,a4
    1d1c:	97aa                	add	a5,a5,a0
    1d1e:	01f79513          	slli	a0,a5,0x1f
    1d22:	8205                	srli	a2,a2,0x1
    1d24:	8d51                	or	a0,a0,a2
    1d26:	8385                	srli	a5,a5,0x1
    1d28:	84b6                	mv	s1,a3
    1d2a:	b775                	j	1cd6 <__subdf3+0x22a>
    1d2c:	0c505563          	blez	t0,1df6 <__subdf3+0x34a>
    1d30:	08031063          	bnez	t1,1db0 <__subdf3+0x304>
    1d34:	00c766b3          	or	a3,a4,a2
    1d38:	34068c63          	beqz	a3,2090 <__subdf3+0x5e4>
    1d3c:	fff28593          	addi	a1,t0,-1
    1d40:	e991                	bnez	a1,1d54 <__subdf3+0x2a8>
    1d42:	40c50633          	sub	a2,a0,a2
    1d46:	00c53533          	sltu	a0,a0,a2
    1d4a:	8f99                	sub	a5,a5,a4
    1d4c:	8f89                	sub	a5,a5,a0
    1d4e:	8532                	mv	a0,a2
    1d50:	4485                	li	s1,1
    1d52:	a0b1                	j	1d9e <__subdf3+0x2f2>
    1d54:	7ff00693          	li	a3,2047
    1d58:	dcd28ee3          	beq	t0,a3,1b34 <__subdf3+0x88>
    1d5c:	03800693          	li	a3,56
    1d60:	08b6c763          	blt	a3,a1,1dee <__subdf3+0x342>
    1d64:	46fd                	li	a3,31
    1d66:	04b6ce63          	blt	a3,a1,1dc2 <__subdf3+0x316>
    1d6a:	02000313          	li	t1,32
    1d6e:	40b30333          	sub	t1,t1,a1
    1d72:	006716b3          	sll	a3,a4,t1
    1d76:	00b652b3          	srl	t0,a2,a1
    1d7a:	00661633          	sll	a2,a2,t1
    1d7e:	0056e6b3          	or	a3,a3,t0
    1d82:	00c03633          	snez	a2,a2
    1d86:	8e55                	or	a2,a2,a3
    1d88:	00b75733          	srl	a4,a4,a1
    1d8c:	40c50633          	sub	a2,a0,a2
    1d90:	00c53533          	sltu	a0,a0,a2
    1d94:	40e78733          	sub	a4,a5,a4
    1d98:	40a707b3          	sub	a5,a4,a0
    1d9c:	8532                	mv	a0,a2
    1d9e:	008005b7          	lui	a1,0x800
    1da2:	00b7f733          	and	a4,a5,a1
    1da6:	db05                	beqz	a4,1cd6 <__subdf3+0x22a>
    1da8:	15fd                	addi	a1,a1,-1
    1daa:	8dfd                	and	a1,a1,a5
    1dac:	832a                	mv	t1,a0
    1dae:	aa5d                	j	1f64 <__subdf3+0x4b8>
    1db0:	7ff00693          	li	a3,2047
    1db4:	f2d481e3          	beq	s1,a3,1cd6 <__subdf3+0x22a>
    1db8:	008006b7          	lui	a3,0x800
    1dbc:	8f55                	or	a4,a4,a3
    1dbe:	8596                	mv	a1,t0
    1dc0:	bf71                	j	1d5c <__subdf3+0x2b0>
    1dc2:	fe058693          	addi	a3,a1,-32 # 7fffe0 <__min_heap_size+0x7dffe0>
    1dc6:	02000293          	li	t0,32
    1dca:	00d756b3          	srl	a3,a4,a3
    1dce:	4301                	li	t1,0
    1dd0:	00558863          	beq	a1,t0,1de0 <__subdf3+0x334>
    1dd4:	04000313          	li	t1,64
    1dd8:	40b305b3          	sub	a1,t1,a1
    1ddc:	00b71333          	sll	t1,a4,a1
    1de0:	00c36633          	or	a2,t1,a2
    1de4:	00c03633          	snez	a2,a2
    1de8:	8e55                	or	a2,a2,a3
    1dea:	4701                	li	a4,0
    1dec:	b745                	j	1d8c <__subdf3+0x2e0>
    1dee:	8e59                	or	a2,a2,a4
    1df0:	00c03633          	snez	a2,a2
    1df4:	bfdd                	j	1dea <__subdf3+0x33e>
    1df6:	0c028463          	beqz	t0,1ebe <__subdf3+0x412>
    1dfa:	409302b3          	sub	t0,t1,s1
    1dfe:	e895                	bnez	s1,1e32 <__subdf3+0x386>
    1e00:	00a7e5b3          	or	a1,a5,a0
    1e04:	28058863          	beqz	a1,2094 <__subdf3+0x5e8>
    1e08:	fff28593          	addi	a1,t0,-1
    1e0c:	e991                	bnez	a1,1e20 <__subdf3+0x374>
    1e0e:	40a60533          	sub	a0,a2,a0
    1e12:	40f707b3          	sub	a5,a4,a5
    1e16:	00a63633          	sltu	a2,a2,a0
    1e1a:	8f91                	sub	a5,a5,a2
    1e1c:	8436                	mv	s0,a3
    1e1e:	bf0d                	j	1d50 <__subdf3+0x2a4>
    1e20:	7ff00393          	li	t2,2047
    1e24:	00729f63          	bne	t0,t2,1e42 <__subdf3+0x396>
    1e28:	87ba                	mv	a5,a4
    1e2a:	8532                	mv	a0,a2
    1e2c:	7ff00493          	li	s1,2047
    1e30:	a07d                	j	1ede <__subdf3+0x432>
    1e32:	7ff00593          	li	a1,2047
    1e36:	feb309e3          	beq	t1,a1,1e28 <__subdf3+0x37c>
    1e3a:	008005b7          	lui	a1,0x800
    1e3e:	8fcd                	or	a5,a5,a1
    1e40:	8596                	mv	a1,t0
    1e42:	03800293          	li	t0,56
    1e46:	06b2c863          	blt	t0,a1,1eb6 <__subdf3+0x40a>
    1e4a:	42fd                	li	t0,31
    1e4c:	02b2ce63          	blt	t0,a1,1e88 <__subdf3+0x3dc>
    1e50:	02000393          	li	t2,32
    1e54:	40b383b3          	sub	t2,t2,a1
    1e58:	007792b3          	sll	t0,a5,t2
    1e5c:	00b55433          	srl	s0,a0,a1
    1e60:	00751533          	sll	a0,a0,t2
    1e64:	0082e2b3          	or	t0,t0,s0
    1e68:	00a03533          	snez	a0,a0
    1e6c:	00a2e533          	or	a0,t0,a0
    1e70:	00b7d7b3          	srl	a5,a5,a1
    1e74:	40a60533          	sub	a0,a2,a0
    1e78:	40f707b3          	sub	a5,a4,a5
    1e7c:	00a63633          	sltu	a2,a2,a0
    1e80:	8f91                	sub	a5,a5,a2
    1e82:	849a                	mv	s1,t1
    1e84:	8436                	mv	s0,a3
    1e86:	bf21                	j	1d9e <__subdf3+0x2f2>
    1e88:	fe058293          	addi	t0,a1,-32 # 7fffe0 <__min_heap_size+0x7dffe0>
    1e8c:	02000413          	li	s0,32
    1e90:	0057d2b3          	srl	t0,a5,t0
    1e94:	4381                	li	t2,0
    1e96:	00858863          	beq	a1,s0,1ea6 <__subdf3+0x3fa>
    1e9a:	04000393          	li	t2,64
    1e9e:	40b385b3          	sub	a1,t2,a1
    1ea2:	00b793b3          	sll	t2,a5,a1
    1ea6:	00a3e533          	or	a0,t2,a0
    1eaa:	00a03533          	snez	a0,a0
    1eae:	00a2e533          	or	a0,t0,a0
    1eb2:	4781                	li	a5,0
    1eb4:	b7c1                	j	1e74 <__subdf3+0x3c8>
    1eb6:	8d5d                	or	a0,a0,a5
    1eb8:	00a03533          	snez	a0,a0
    1ebc:	bfdd                	j	1eb2 <__subdf3+0x406>
    1ebe:	00148593          	addi	a1,s1,1
    1ec2:	7fe5f593          	andi	a1,a1,2046
    1ec6:	e9a5                	bnez	a1,1f36 <__subdf3+0x48a>
    1ec8:	00a7e333          	or	t1,a5,a0
    1ecc:	00c765b3          	or	a1,a4,a2
    1ed0:	e8a1                	bnez	s1,1f20 <__subdf3+0x474>
    1ed2:	00031863          	bnez	t1,1ee2 <__subdf3+0x436>
    1ed6:	1c058363          	beqz	a1,209c <__subdf3+0x5f0>
    1eda:	87ba                	mv	a5,a4
    1edc:	8532                	mv	a0,a2
    1ede:	8436                	mv	s0,a3
    1ee0:	bbdd                	j	1cd6 <__subdf3+0x22a>
    1ee2:	de058ae3          	beqz	a1,1cd6 <__subdf3+0x22a>
    1ee6:	40c50333          	sub	t1,a0,a2
    1eea:	006532b3          	sltu	t0,a0,t1
    1eee:	40e785b3          	sub	a1,a5,a4
    1ef2:	405585b3          	sub	a1,a1,t0
    1ef6:	008002b7          	lui	t0,0x800
    1efa:	0055f2b3          	and	t0,a1,t0
    1efe:	00028a63          	beqz	t0,1f12 <__subdf3+0x466>
    1f02:	40a60533          	sub	a0,a2,a0
    1f06:	40f707b3          	sub	a5,a4,a5
    1f0a:	00a63633          	sltu	a2,a2,a0
    1f0e:	8f91                	sub	a5,a5,a2
    1f10:	b7f9                	j	1ede <__subdf3+0x432>
    1f12:	00b36533          	or	a0,t1,a1
    1f16:	18050763          	beqz	a0,20a4 <__subdf3+0x5f8>
    1f1a:	87ae                	mv	a5,a1
    1f1c:	851a                	mv	a0,t1
    1f1e:	bb65                	j	1cd6 <__subdf3+0x22a>
    1f20:	00031863          	bnez	t1,1f30 <__subdf3+0x484>
    1f24:	18058263          	beqz	a1,20a8 <__subdf3+0x5fc>
    1f28:	87ba                	mv	a5,a4
    1f2a:	8532                	mv	a0,a2
    1f2c:	8436                	mv	s0,a3
    1f2e:	b119                	j	1b34 <__subdf3+0x88>
    1f30:	c00582e3          	beqz	a1,1b34 <__subdf3+0x88>
    1f34:	b3e9                	j	1cfe <__subdf3+0x252>
    1f36:	40c50333          	sub	t1,a0,a2
    1f3a:	006532b3          	sltu	t0,a0,t1
    1f3e:	40e785b3          	sub	a1,a5,a4
    1f42:	405585b3          	sub	a1,a1,t0
    1f46:	008002b7          	lui	t0,0x800
    1f4a:	0055f2b3          	and	t0,a1,t0
    1f4e:	06028a63          	beqz	t0,1fc2 <__subdf3+0x516>
    1f52:	40a60333          	sub	t1,a2,a0
    1f56:	40f707b3          	sub	a5,a4,a5
    1f5a:	00663633          	sltu	a2,a2,t1
    1f5e:	40c785b3          	sub	a1,a5,a2
    1f62:	8436                	mv	s0,a3
    1f64:	c5ad                	beqz	a1,1fce <__subdf3+0x522>
    1f66:	852e                	mv	a0,a1
    1f68:	c21a                	sw	t1,4(sp)
    1f6a:	c02e                	sw	a1,0(sp)
    1f6c:	2c19                	jal	2182 <__clzsi2>
    1f6e:	4582                	lw	a1,0(sp)
    1f70:	4312                	lw	t1,4(sp)
    1f72:	ff850713          	addi	a4,a0,-8
    1f76:	47fd                	li	a5,31
    1f78:	06e7c463          	blt	a5,a4,1fe0 <__subdf3+0x534>
    1f7c:	02000793          	li	a5,32
    1f80:	8f99                	sub	a5,a5,a4
    1f82:	00e595b3          	sll	a1,a1,a4
    1f86:	00f357b3          	srl	a5,t1,a5
    1f8a:	8fcd                	or	a5,a5,a1
    1f8c:	00e31533          	sll	a0,t1,a4
    1f90:	08974163          	blt	a4,s1,2012 <__subdf3+0x566>
    1f94:	8f05                	sub	a4,a4,s1
    1f96:	00170613          	addi	a2,a4,1 # ff800001 <__heap_end+0xdf7d0001>
    1f9a:	46fd                	li	a3,31
    1f9c:	04c6c863          	blt	a3,a2,1fec <__subdf3+0x540>
    1fa0:	02000713          	li	a4,32
    1fa4:	8f11                	sub	a4,a4,a2
    1fa6:	00e796b3          	sll	a3,a5,a4
    1faa:	00c555b3          	srl	a1,a0,a2
    1fae:	00e51533          	sll	a0,a0,a4
    1fb2:	8ecd                	or	a3,a3,a1
    1fb4:	00a03533          	snez	a0,a0
    1fb8:	8d55                	or	a0,a0,a3
    1fba:	00c7d7b3          	srl	a5,a5,a2
    1fbe:	4481                	li	s1,0
    1fc0:	bb19                	j	1cd6 <__subdf3+0x22a>
    1fc2:	00b36533          	or	a0,t1,a1
    1fc6:	fd59                	bnez	a0,1f64 <__subdf3+0x4b8>
    1fc8:	4781                	li	a5,0
    1fca:	4481                	li	s1,0
    1fcc:	a8d1                	j	20a0 <__subdf3+0x5f4>
    1fce:	851a                	mv	a0,t1
    1fd0:	c22e                	sw	a1,4(sp)
    1fd2:	c01a                	sw	t1,0(sp)
    1fd4:	227d                	jal	2182 <__clzsi2>
    1fd6:	4592                	lw	a1,4(sp)
    1fd8:	4302                	lw	t1,0(sp)
    1fda:	02050513          	addi	a0,a0,32
    1fde:	bf51                	j	1f72 <__subdf3+0x4c6>
    1fe0:	fd850793          	addi	a5,a0,-40
    1fe4:	00f317b3          	sll	a5,t1,a5
    1fe8:	4501                	li	a0,0
    1fea:	b75d                	j	1f90 <__subdf3+0x4e4>
    1fec:	1705                	addi	a4,a4,-31
    1fee:	02000593          	li	a1,32
    1ff2:	00e7d733          	srl	a4,a5,a4
    1ff6:	4681                	li	a3,0
    1ff8:	00b60763          	beq	a2,a1,2006 <__subdf3+0x55a>
    1ffc:	04000693          	li	a3,64
    2000:	8e91                	sub	a3,a3,a2
    2002:	00d796b3          	sll	a3,a5,a3
    2006:	8d55                	or	a0,a0,a3
    2008:	00a03533          	snez	a0,a0
    200c:	8d59                	or	a0,a0,a4
    200e:	4781                	li	a5,0
    2010:	b77d                	j	1fbe <__subdf3+0x512>
    2012:	8c99                	sub	s1,s1,a4
    2014:	ff800737          	lui	a4,0xff800
    2018:	177d                	addi	a4,a4,-1
    201a:	8ff9                	and	a5,a5,a4
    201c:	b96d                	j	1cd6 <__subdf3+0x22a>
    201e:	87ba                	mv	a5,a4
    2020:	8532                	mv	a0,a2
    2022:	84ae                	mv	s1,a1
    2024:	b94d                	j	1cd6 <__subdf3+0x22a>
    2026:	87ba                	mv	a5,a4
    2028:	8532                	mv	a0,a2
    202a:	b175                	j	1cd6 <__subdf3+0x22a>
    202c:	7ff00493          	li	s1,2047
    2030:	4781                	li	a5,0
    2032:	4501                	li	a0,0
    2034:	00800737          	lui	a4,0x800
    2038:	8f7d                	and	a4,a4,a5
    203a:	cb11                	beqz	a4,204e <__subdf3+0x5a2>
    203c:	0485                	addi	s1,s1,1
    203e:	7ff00713          	li	a4,2047
    2042:	06e48863          	beq	s1,a4,20b2 <__subdf3+0x606>
    2046:	ff800737          	lui	a4,0xff800
    204a:	177d                	addi	a4,a4,-1
    204c:	8ff9                	and	a5,a5,a4
    204e:	01d79713          	slli	a4,a5,0x1d
    2052:	810d                	srli	a0,a0,0x3
    2054:	8d59                	or	a0,a0,a4
    2056:	7ff00713          	li	a4,2047
    205a:	838d                	srli	a5,a5,0x3
    205c:	00e49963          	bne	s1,a4,206e <__subdf3+0x5c2>
    2060:	8d5d                	or	a0,a0,a5
    2062:	4781                	li	a5,0
    2064:	c509                	beqz	a0,206e <__subdf3+0x5c2>
    2066:	000807b7          	lui	a5,0x80
    206a:	4501                	li	a0,0
    206c:	4401                	li	s0,0
    206e:	01449713          	slli	a4,s1,0x14
    2072:	7ff006b7          	lui	a3,0x7ff00
    2076:	07b2                	slli	a5,a5,0xc
    2078:	8f75                	and	a4,a4,a3
    207a:	83b1                	srli	a5,a5,0xc
    207c:	047e                	slli	s0,s0,0x1f
    207e:	8fd9                	or	a5,a5,a4
    2080:	40c2                	lw	ra,16(sp)
    2082:	0087e733          	or	a4,a5,s0
    2086:	4432                	lw	s0,12(sp)
    2088:	44a2                	lw	s1,8(sp)
    208a:	85ba                	mv	a1,a4
    208c:	0151                	addi	sp,sp,20
    208e:	8082                	ret
    2090:	8496                	mv	s1,t0
    2092:	b191                	j	1cd6 <__subdf3+0x22a>
    2094:	87ba                	mv	a5,a4
    2096:	8532                	mv	a0,a2
    2098:	8496                	mv	s1,t0
    209a:	b591                	j	1ede <__subdf3+0x432>
    209c:	4781                	li	a5,0
    209e:	4501                	li	a0,0
    20a0:	4401                	li	s0,0
    20a2:	bf49                	j	2034 <__subdf3+0x588>
    20a4:	4781                	li	a5,0
    20a6:	bfed                	j	20a0 <__subdf3+0x5f4>
    20a8:	4501                	li	a0,0
    20aa:	4401                	li	s0,0
    20ac:	004007b7          	lui	a5,0x400
    20b0:	b999                	j	1d06 <__subdf3+0x25a>
    20b2:	4781                	li	a5,0
    20b4:	4501                	li	a0,0
    20b6:	bf61                	j	204e <__subdf3+0x5a2>

000020b8 <__fixdfsi>:
    20b8:	0145d713          	srli	a4,a1,0x14
    20bc:	001006b7          	lui	a3,0x100
    20c0:	fff68793          	addi	a5,a3,-1 # fffff <__min_heap_size+0xdffff>
    20c4:	7ff77713          	andi	a4,a4,2047
    20c8:	3fe00613          	li	a2,1022
    20cc:	8fed                	and	a5,a5,a1
    20ce:	81fd                	srli	a1,a1,0x1f
    20d0:	04e65463          	bge	a2,a4,2118 <__fixdfsi+0x60>
    20d4:	41d00613          	li	a2,1053
    20d8:	00e65863          	bge	a2,a4,20e8 <__fixdfsi+0x30>
    20dc:	80000537          	lui	a0,0x80000
    20e0:	fff54513          	not	a0,a0
    20e4:	952e                	add	a0,a0,a1
    20e6:	8082                	ret
    20e8:	8fd5                	or	a5,a5,a3
    20ea:	43300693          	li	a3,1075
    20ee:	8e99                	sub	a3,a3,a4
    20f0:	467d                	li	a2,31
    20f2:	00d64d63          	blt	a2,a3,210c <__fixdfsi+0x54>
    20f6:	bed70713          	addi	a4,a4,-1043 # ff7ffbed <__heap_end+0xdf7cfbed>
    20fa:	00e797b3          	sll	a5,a5,a4
    20fe:	00d55533          	srl	a0,a0,a3
    2102:	8d5d                	or	a0,a0,a5
    2104:	c999                	beqz	a1,211a <__fixdfsi+0x62>
    2106:	40a00533          	neg	a0,a0
    210a:	8082                	ret
    210c:	41300513          	li	a0,1043
    2110:	8d19                	sub	a0,a0,a4
    2112:	00a7d533          	srl	a0,a5,a0
    2116:	b7fd                	j	2104 <__fixdfsi+0x4c>
    2118:	4501                	li	a0,0
    211a:	8082                	ret

0000211c <__floatsidf>:
    211c:	1151                	addi	sp,sp,-12
    211e:	c406                	sw	ra,8(sp)
    2120:	c222                	sw	s0,4(sp)
    2122:	c026                	sw	s1,0(sp)
    2124:	cd21                	beqz	a0,217c <__floatsidf+0x60>
    2126:	41f55793          	srai	a5,a0,0x1f
    212a:	00a7c433          	xor	s0,a5,a0
    212e:	8c1d                	sub	s0,s0,a5
    2130:	01f55493          	srli	s1,a0,0x1f
    2134:	8522                	mv	a0,s0
    2136:	20b1                	jal	2182 <__clzsi2>
    2138:	41e00713          	li	a4,1054
    213c:	47a9                	li	a5,10
    213e:	8f09                	sub	a4,a4,a0
    2140:	02a7c863          	blt	a5,a0,2170 <__floatsidf+0x54>
    2144:	47ad                	li	a5,11
    2146:	8f89                	sub	a5,a5,a0
    2148:	0555                	addi	a0,a0,21
    214a:	00f457b3          	srl	a5,s0,a5
    214e:	00a41433          	sll	s0,s0,a0
    2152:	8526                	mv	a0,s1
    2154:	07b2                	slli	a5,a5,0xc
    2156:	0752                	slli	a4,a4,0x14
    2158:	83b1                	srli	a5,a5,0xc
    215a:	057e                	slli	a0,a0,0x1f
    215c:	8fd9                	or	a5,a5,a4
    215e:	40a2                	lw	ra,8(sp)
    2160:	00a7e733          	or	a4,a5,a0
    2164:	8522                	mv	a0,s0
    2166:	4412                	lw	s0,4(sp)
    2168:	4482                	lw	s1,0(sp)
    216a:	85ba                	mv	a1,a4
    216c:	0131                	addi	sp,sp,12
    216e:	8082                	ret
    2170:	1555                	addi	a0,a0,-11
    2172:	00a417b3          	sll	a5,s0,a0
    2176:	8526                	mv	a0,s1
    2178:	4401                	li	s0,0
    217a:	bfe9                	j	2154 <__floatsidf+0x38>
    217c:	4701                	li	a4,0
    217e:	4781                	li	a5,0
    2180:	bfe5                	j	2178 <__floatsidf+0x5c>

00002182 <__clzsi2>:
    2182:	67c1                	lui	a5,0x10
    2184:	02f57663          	bgeu	a0,a5,21b0 <__clzsi2+0x2e>
    2188:	0ff00793          	li	a5,255
    218c:	00a7b7b3          	sltu	a5,a5,a0
    2190:	078e                	slli	a5,a5,0x3
    2192:	02000713          	li	a4,32
    2196:	8f1d                	sub	a4,a4,a5
    2198:	00f55533          	srl	a0,a0,a5
    219c:	00003797          	auipc	a5,0x3
    21a0:	a9c78793          	addi	a5,a5,-1380 # 4c38 <__clz_tab>
    21a4:	953e                	add	a0,a0,a5
    21a6:	00054503          	lbu	a0,0(a0) # 80000000 <__heap_end+0x5ffd0000>
    21aa:	40a70533          	sub	a0,a4,a0
    21ae:	8082                	ret
    21b0:	01000737          	lui	a4,0x1000
    21b4:	47c1                	li	a5,16
    21b6:	fce56ee3          	bltu	a0,a4,2192 <__clzsi2+0x10>
    21ba:	47e1                	li	a5,24
    21bc:	bfd9                	j	2192 <__clzsi2+0x10>

000021be <memmove>:
    21be:	02a5f263          	bgeu	a1,a0,21e2 <memmove+0x24>
    21c2:	00c587b3          	add	a5,a1,a2
    21c6:	00f57e63          	bgeu	a0,a5,21e2 <memmove+0x24>
    21ca:	00c50733          	add	a4,a0,a2
    21ce:	c20d                	beqz	a2,21f0 <memmove+0x32>
    21d0:	fff7c683          	lbu	a3,-1(a5)
    21d4:	17fd                	addi	a5,a5,-1
    21d6:	177d                	addi	a4,a4,-1
    21d8:	00d70023          	sb	a3,0(a4) # 1000000 <__min_heap_size+0xfe0000>
    21dc:	fef59ae3          	bne	a1,a5,21d0 <memmove+0x12>
    21e0:	8082                	ret
    21e2:	47bd                	li	a5,15
    21e4:	00c7e763          	bltu	a5,a2,21f2 <memmove+0x34>
    21e8:	87aa                	mv	a5,a0
    21ea:	fff60693          	addi	a3,a2,-1
    21ee:	ea09                	bnez	a2,2200 <memmove+0x42>
    21f0:	8082                	ret
    21f2:	00a5e7b3          	or	a5,a1,a0
    21f6:	8b8d                	andi	a5,a5,3
    21f8:	cf99                	beqz	a5,2216 <memmove+0x58>
    21fa:	fff60693          	addi	a3,a2,-1
    21fe:	87aa                	mv	a5,a0
    2200:	0685                	addi	a3,a3,1
    2202:	96be                	add	a3,a3,a5
    2204:	0005c703          	lbu	a4,0(a1)
    2208:	0785                	addi	a5,a5,1
    220a:	0585                	addi	a1,a1,1
    220c:	fee78fa3          	sb	a4,-1(a5)
    2210:	fed79ae3          	bne	a5,a3,2204 <memmove+0x46>
    2214:	8082                	ret
    2216:	ff060293          	addi	t0,a2,-16
    221a:	ff02f293          	andi	t0,t0,-16
    221e:	02c1                	addi	t0,t0,16
    2220:	00550333          	add	t1,a0,t0
    2224:	872e                	mv	a4,a1
    2226:	87aa                	mv	a5,a0
    2228:	4314                	lw	a3,0(a4)
    222a:	0741                	addi	a4,a4,16
    222c:	07c1                	addi	a5,a5,16
    222e:	fed7a823          	sw	a3,-16(a5)
    2232:	ff472683          	lw	a3,-12(a4)
    2236:	fed7aa23          	sw	a3,-12(a5)
    223a:	ff872683          	lw	a3,-8(a4)
    223e:	fed7ac23          	sw	a3,-8(a5)
    2242:	ffc72683          	lw	a3,-4(a4)
    2246:	fed7ae23          	sw	a3,-4(a5)
    224a:	fcf31fe3          	bne	t1,a5,2228 <memmove+0x6a>
    224e:	00c67713          	andi	a4,a2,12
    2252:	9596                	add	a1,a1,t0
    2254:	00f67313          	andi	t1,a2,15
    2258:	cb21                	beqz	a4,22a8 <memmove+0xea>
    225a:	1171                	addi	sp,sp,-4
    225c:	c022                	sw	s0,0(sp)
    225e:	872e                	mv	a4,a1
    2260:	82be                	mv	t0,a5
    2262:	440d                	li	s0,3
    2264:	00072383          	lw	t2,0(a4)
    2268:	0711                	addi	a4,a4,4
    226a:	40e306b3          	sub	a3,t1,a4
    226e:	0072a023          	sw	t2,0(t0) # 800000 <__min_heap_size+0x7e0000>
    2272:	96ae                	add	a3,a3,a1
    2274:	0291                	addi	t0,t0,4
    2276:	fed467e3          	bltu	s0,a3,2264 <memmove+0xa6>
    227a:	ffc30713          	addi	a4,t1,-4 # ffffc <__min_heap_size+0xdfffc>
    227e:	9b71                	andi	a4,a4,-4
    2280:	8a0d                	andi	a2,a2,3
    2282:	0711                	addi	a4,a4,4
    2284:	fff60693          	addi	a3,a2,-1
    2288:	97ba                	add	a5,a5,a4
    228a:	0685                	addi	a3,a3,1
    228c:	95ba                	add	a1,a1,a4
    228e:	96be                	add	a3,a3,a5
    2290:	ca09                	beqz	a2,22a2 <memmove+0xe4>
    2292:	0005c703          	lbu	a4,0(a1)
    2296:	0785                	addi	a5,a5,1
    2298:	0585                	addi	a1,a1,1
    229a:	fee78fa3          	sb	a4,-1(a5)
    229e:	fed79ae3          	bne	a5,a3,2292 <memmove+0xd4>
    22a2:	4402                	lw	s0,0(sp)
    22a4:	0111                	addi	sp,sp,4
    22a6:	8082                	ret
    22a8:	861a                	mv	a2,t1
    22aa:	b781                	j	21ea <memmove+0x2c>

000022ac <memset>:
    22ac:	433d                	li	t1,15
    22ae:	872a                	mv	a4,a0
    22b0:	02c37563          	bgeu	t1,a2,22da <memset+0x2e>
    22b4:	00f77793          	andi	a5,a4,15
    22b8:	e3c9                	bnez	a5,233a <memset+0x8e>
    22ba:	06059763          	bnez	a1,2328 <memset+0x7c>
    22be:	ff067693          	andi	a3,a2,-16
    22c2:	8a3d                	andi	a2,a2,15
    22c4:	96ba                	add	a3,a3,a4
    22c6:	c30c                	sw	a1,0(a4)
    22c8:	c34c                	sw	a1,4(a4)
    22ca:	c70c                	sw	a1,8(a4)
    22cc:	c74c                	sw	a1,12(a4)
    22ce:	0741                	addi	a4,a4,16
    22d0:	fed76be3          	bltu	a4,a3,22c6 <memset+0x1a>
    22d4:	00061363          	bnez	a2,22da <memset+0x2e>
    22d8:	8082                	ret
    22da:	40c306b3          	sub	a3,t1,a2
    22de:	068a                	slli	a3,a3,0x2
    22e0:	00000297          	auipc	t0,0x0
    22e4:	9696                	add	a3,a3,t0
    22e6:	00a68067          	jr	10(a3)
    22ea:	00b70723          	sb	a1,14(a4)
    22ee:	00b706a3          	sb	a1,13(a4)
    22f2:	00b70623          	sb	a1,12(a4)
    22f6:	00b705a3          	sb	a1,11(a4)
    22fa:	00b70523          	sb	a1,10(a4)
    22fe:	00b704a3          	sb	a1,9(a4)
    2302:	00b70423          	sb	a1,8(a4)
    2306:	00b703a3          	sb	a1,7(a4)
    230a:	00b70323          	sb	a1,6(a4)
    230e:	00b702a3          	sb	a1,5(a4)
    2312:	00b70223          	sb	a1,4(a4)
    2316:	00b701a3          	sb	a1,3(a4)
    231a:	00b70123          	sb	a1,2(a4)
    231e:	00b700a3          	sb	a1,1(a4)
    2322:	00b70023          	sb	a1,0(a4)
    2326:	8082                	ret
    2328:	0ff5f593          	andi	a1,a1,255
    232c:	00859693          	slli	a3,a1,0x8
    2330:	8dd5                	or	a1,a1,a3
    2332:	01059693          	slli	a3,a1,0x10
    2336:	8dd5                	or	a1,a1,a3
    2338:	b759                	j	22be <memset+0x12>
    233a:	00279693          	slli	a3,a5,0x2
    233e:	00000297          	auipc	t0,0x0
    2342:	9696                	add	a3,a3,t0
    2344:	8286                	mv	t0,ra
    2346:	fa8680e7          	jalr	-88(a3)
    234a:	8096                	mv	ra,t0
    234c:	17c1                	addi	a5,a5,-16
    234e:	8f1d                	sub	a4,a4,a5
    2350:	963e                	add	a2,a2,a5
    2352:	f8c374e3          	bgeu	t1,a2,22da <memset+0x2e>
    2356:	b795                	j	22ba <memset+0xe>
	...

0000235a <strchr>:
    235a:	0ff5f693          	andi	a3,a1,255
    235e:	00357793          	andi	a5,a0,3
    2362:	cec9                	beqz	a3,23fc <strchr+0xa2>
    2364:	00078b63          	beqz	a5,237a <strchr+0x20>
    2368:	00054783          	lbu	a5,0(a0)
    236c:	c7d1                	beqz	a5,23f8 <strchr+0x9e>
    236e:	08d78663          	beq	a5,a3,23fa <strchr+0xa0>
    2372:	0505                	addi	a0,a0,1
    2374:	00357793          	andi	a5,a0,3
    2378:	fbe5                	bnez	a5,2368 <strchr+0xe>
    237a:	0ff5f593          	andi	a1,a1,255
    237e:	00859313          	slli	t1,a1,0x8
    2382:	4118                	lw	a4,0(a0)
    2384:	0065e5b3          	or	a1,a1,t1
    2388:	01059313          	slli	t1,a1,0x10
    238c:	00b36333          	or	t1,t1,a1
    2390:	feff0637          	lui	a2,0xfeff0
    2394:	00e345b3          	xor	a1,t1,a4
    2398:	eff60613          	addi	a2,a2,-257 # fefefeff <__heap_end+0xdefbfeff>
    239c:	00c587b3          	add	a5,a1,a2
    23a0:	00c702b3          	add	t0,a4,a2
    23a4:	fff5c593          	not	a1,a1
    23a8:	fff74713          	not	a4,a4
    23ac:	8fed                	and	a5,a5,a1
    23ae:	00e2f733          	and	a4,t0,a4
    23b2:	808085b7          	lui	a1,0x80808
    23b6:	8fd9                	or	a5,a5,a4
    23b8:	08058593          	addi	a1,a1,128 # 80808080 <__heap_end+0x607d8080>
    23bc:	8fed                	and	a5,a5,a1
    23be:	e785                	bnez	a5,23e6 <strchr+0x8c>
    23c0:	4158                	lw	a4,4(a0)
    23c2:	0511                	addi	a0,a0,4
    23c4:	006742b3          	xor	t0,a4,t1
    23c8:	00c707b3          	add	a5,a4,a2
    23cc:	00c283b3          	add	t2,t0,a2
    23d0:	fff74713          	not	a4,a4
    23d4:	fff2c293          	not	t0,t0
    23d8:	8ff9                	and	a5,a5,a4
    23da:	0053f2b3          	and	t0,t2,t0
    23de:	0057e7b3          	or	a5,a5,t0
    23e2:	8fed                	and	a5,a5,a1
    23e4:	dff1                	beqz	a5,23c0 <strchr+0x66>
    23e6:	00054783          	lbu	a5,0(a0)
    23ea:	c799                	beqz	a5,23f8 <strchr+0x9e>
    23ec:	06f68163          	beq	a3,a5,244e <strchr+0xf4>
    23f0:	00154783          	lbu	a5,1(a0)
    23f4:	0505                	addi	a0,a0,1
    23f6:	fbfd                	bnez	a5,23ec <strchr+0x92>
    23f8:	4501                	li	a0,0
    23fa:	8082                	ret
    23fc:	cb81                	beqz	a5,240c <strchr+0xb2>
    23fe:	00054783          	lbu	a5,0(a0)
    2402:	dfe5                	beqz	a5,23fa <strchr+0xa0>
    2404:	0505                	addi	a0,a0,1
    2406:	00357793          	andi	a5,a0,3
    240a:	fbf5                	bnez	a5,23fe <strchr+0xa4>
    240c:	4118                	lw	a4,0(a0)
    240e:	feff0637          	lui	a2,0xfeff0
    2412:	eff60613          	addi	a2,a2,-257 # fefefeff <__heap_end+0xdefbfeff>
    2416:	00c707b3          	add	a5,a4,a2
    241a:	808086b7          	lui	a3,0x80808
    241e:	fff74713          	not	a4,a4
    2422:	8ff9                	and	a5,a5,a4
    2424:	08068693          	addi	a3,a3,128 # 80808080 <__heap_end+0x607d8080>
    2428:	8ff5                	and	a5,a5,a3
    242a:	eb91                	bnez	a5,243e <strchr+0xe4>
    242c:	4158                	lw	a4,4(a0)
    242e:	0511                	addi	a0,a0,4
    2430:	00c707b3          	add	a5,a4,a2
    2434:	fff74713          	not	a4,a4
    2438:	8ff9                	and	a5,a5,a4
    243a:	8ff5                	and	a5,a5,a3
    243c:	dbe5                	beqz	a5,242c <strchr+0xd2>
    243e:	00054783          	lbu	a5,0(a0)
    2442:	dfc5                	beqz	a5,23fa <strchr+0xa0>
    2444:	00154783          	lbu	a5,1(a0)
    2448:	0505                	addi	a0,a0,1
    244a:	ffed                	bnez	a5,2444 <strchr+0xea>
    244c:	8082                	ret
    244e:	8082                	ret

00002450 <strcpy>:
    2450:	00b567b3          	or	a5,a0,a1
    2454:	8b8d                	andi	a5,a5,3
    2456:	efb1                	bnez	a5,24b2 <strcpy+0x62>
    2458:	4198                	lw	a4,0(a1)
    245a:	7f7f86b7          	lui	a3,0x7f7f8
    245e:	f7f68693          	addi	a3,a3,-129 # 7f7f7f7f <__heap_end+0x5f7c7f7f>
    2462:	00d777b3          	and	a5,a4,a3
    2466:	97b6                	add	a5,a5,a3
    2468:	8fd9                	or	a5,a5,a4
    246a:	8fd5                	or	a5,a5,a3
    246c:	567d                	li	a2,-1
    246e:	04c79b63          	bne	a5,a2,24c4 <strcpy+0x74>
    2472:	862a                	mv	a2,a0
    2474:	537d                	li	t1,-1
    2476:	c218                	sw	a4,0(a2)
    2478:	41d8                	lw	a4,4(a1)
    247a:	0591                	addi	a1,a1,4
    247c:	0611                	addi	a2,a2,4
    247e:	00d777b3          	and	a5,a4,a3
    2482:	97b6                	add	a5,a5,a3
    2484:	8fd9                	or	a5,a5,a4
    2486:	8fd5                	or	a5,a5,a3
    2488:	fe6787e3          	beq	a5,t1,2476 <strcpy+0x26>
    248c:	0005c783          	lbu	a5,0(a1)
    2490:	0015c703          	lbu	a4,1(a1)
    2494:	0025c683          	lbu	a3,2(a1)
    2498:	00f60023          	sb	a5,0(a2)
    249c:	c799                	beqz	a5,24aa <strcpy+0x5a>
    249e:	00e600a3          	sb	a4,1(a2)
    24a2:	c701                	beqz	a4,24aa <strcpy+0x5a>
    24a4:	00d60123          	sb	a3,2(a2)
    24a8:	e291                	bnez	a3,24ac <strcpy+0x5c>
    24aa:	8082                	ret
    24ac:	000601a3          	sb	zero,3(a2)
    24b0:	8082                	ret
    24b2:	87aa                	mv	a5,a0
    24b4:	0005c703          	lbu	a4,0(a1)
    24b8:	0785                	addi	a5,a5,1
    24ba:	0585                	addi	a1,a1,1
    24bc:	fee78fa3          	sb	a4,-1(a5)
    24c0:	fb75                	bnez	a4,24b4 <strcpy+0x64>
    24c2:	8082                	ret
    24c4:	862a                	mv	a2,a0
    24c6:	b7d9                	j	248c <strcpy+0x3c>
	...

000024ca <_strerror_r>:
    24ca:	87ae                	mv	a5,a1
    24cc:	08e00713          	li	a4,142
    24d0:	85b2                	mv	a1,a2
    24d2:	00f76d63          	bltu	a4,a5,24ec <_strerror_r+0x22>
    24d6:	00003617          	auipc	a2,0x3
    24da:	86260613          	addi	a2,a2,-1950 # 4d38 <__clz_tab+0x100>
    24de:	00279313          	slli	t1,a5,0x2
    24e2:	9332                	add	t1,t1,a2
    24e4:	00032703          	lw	a4,0(t1)
    24e8:	9732                	add	a4,a4,a2
    24ea:	8702                	jr	a4
    24ec:	1151                	addi	sp,sp,-12
    24ee:	c406                	sw	ra,8(sp)
    24f0:	32068f63          	beqz	a3,282e <_strerror_r+0x364>
    24f4:	8636                	mv	a2,a3
    24f6:	853e                	mv	a0,a5
    24f8:	2f15                	jal	2c2c <_user_strerror>
    24fa:	32050563          	beqz	a0,2824 <_strerror_r+0x35a>
    24fe:	40a2                	lw	ra,8(sp)
    2500:	0131                	addi	sp,sp,12
    2502:	8082                	ret
    2504:	00003517          	auipc	a0,0x3
    2508:	38050513          	addi	a0,a0,896 # 5884 <pad_line+0x68c>
    250c:	8082                	ret
    250e:	00003517          	auipc	a0,0x3
    2512:	35e50513          	addi	a0,a0,862 # 586c <pad_line+0x674>
    2516:	8082                	ret
    2518:	00003517          	auipc	a0,0x3
    251c:	30c50513          	addi	a0,a0,780 # 5824 <pad_line+0x62c>
    2520:	8082                	ret
    2522:	00003517          	auipc	a0,0x3
    2526:	31a50513          	addi	a0,a0,794 # 583c <pad_line+0x644>
    252a:	8082                	ret
    252c:	00003517          	auipc	a0,0x3
    2530:	efc50513          	addi	a0,a0,-260 # 5428 <pad_line+0x230>
    2534:	8082                	ret
    2536:	00003517          	auipc	a0,0x3
    253a:	2b250513          	addi	a0,a0,690 # 57e8 <pad_line+0x5f0>
    253e:	8082                	ret
    2540:	00003517          	auipc	a0,0x3
    2544:	11c50513          	addi	a0,a0,284 # 565c <pad_line+0x464>
    2548:	8082                	ret
    254a:	00003517          	auipc	a0,0x3
    254e:	39a50513          	addi	a0,a0,922 # 58e4 <pad_line+0x6ec>
    2552:	8082                	ret
    2554:	00003517          	auipc	a0,0x3
    2558:	d9c50513          	addi	a0,a0,-612 # 52f0 <pad_line+0xf8>
    255c:	8082                	ret
    255e:	00003517          	auipc	a0,0x3
    2562:	d5a50513          	addi	a0,a0,-678 # 52b8 <pad_line+0xc0>
    2566:	8082                	ret
    2568:	00003517          	auipc	a0,0x3
    256c:	2f050513          	addi	a0,a0,752 # 5858 <pad_line+0x660>
    2570:	8082                	ret
    2572:	00003517          	auipc	a0,0x3
    2576:	34a50513          	addi	a0,a0,842 # 58bc <pad_line+0x6c4>
    257a:	8082                	ret
    257c:	00003517          	auipc	a0,0x3
    2580:	03850513          	addi	a0,a0,56 # 55b4 <pad_line+0x3bc>
    2584:	8082                	ret
    2586:	00003517          	auipc	a0,0x3
    258a:	f6650513          	addi	a0,a0,-154 # 54ec <pad_line+0x2f4>
    258e:	8082                	ret
    2590:	00003517          	auipc	a0,0x3
    2594:	e3050513          	addi	a0,a0,-464 # 53c0 <pad_line+0x1c8>
    2598:	8082                	ret
    259a:	00003517          	auipc	a0,0x3
    259e:	f2650513          	addi	a0,a0,-218 # 54c0 <pad_line+0x2c8>
    25a2:	8082                	ret
    25a4:	00003517          	auipc	a0,0x3
    25a8:	e0c50513          	addi	a0,a0,-500 # 53b0 <pad_line+0x1b8>
    25ac:	8082                	ret
    25ae:	00003517          	auipc	a0,0x3
    25b2:	34a50513          	addi	a0,a0,842 # 58f8 <pad_line+0x700>
    25b6:	8082                	ret
    25b8:	00003517          	auipc	a0,0x3
    25bc:	e4c50513          	addi	a0,a0,-436 # 5404 <pad_line+0x20c>
    25c0:	8082                	ret
    25c2:	00003517          	auipc	a0,0x3
    25c6:	01650513          	addi	a0,a0,22 # 55d8 <pad_line+0x3e0>
    25ca:	8082                	ret
    25cc:	00003517          	auipc	a0,0x3
    25d0:	23450513          	addi	a0,a0,564 # 5800 <pad_line+0x608>
    25d4:	8082                	ret
    25d6:	00003517          	auipc	a0,0x3
    25da:	1fa50513          	addi	a0,a0,506 # 57d0 <pad_line+0x5d8>
    25de:	8082                	ret
    25e0:	00003517          	auipc	a0,0x3
    25e4:	1c050513          	addi	a0,a0,448 # 57a0 <pad_line+0x5a8>
    25e8:	8082                	ret
    25ea:	00003517          	auipc	a0,0x3
    25ee:	19e50513          	addi	a0,a0,414 # 5788 <pad_line+0x590>
    25f2:	8082                	ret
    25f4:	00003517          	auipc	a0,0x3
    25f8:	17450513          	addi	a0,a0,372 # 5768 <pad_line+0x570>
    25fc:	8082                	ret
    25fe:	00003517          	auipc	a0,0x3
    2602:	14a50513          	addi	a0,a0,330 # 5748 <pad_line+0x550>
    2606:	8082                	ret
    2608:	00003517          	auipc	a0,0x3
    260c:	11050513          	addi	a0,a0,272 # 5718 <pad_line+0x520>
    2610:	8082                	ret
    2612:	00003517          	auipc	a0,0x3
    2616:	0e250513          	addi	a0,a0,226 # 56f4 <pad_line+0x4fc>
    261a:	8082                	ret
    261c:	00003517          	auipc	a0,0x3
    2620:	19850513          	addi	a0,a0,408 # 57b4 <pad_line+0x5bc>
    2624:	8082                	ret
    2626:	00003517          	auipc	a0,0x3
    262a:	27250513          	addi	a0,a0,626 # 5898 <pad_line+0x6a0>
    262e:	8082                	ret
    2630:	00003517          	auipc	a0,0x3
    2634:	0ac50513          	addi	a0,a0,172 # 56dc <pad_line+0x4e4>
    2638:	8082                	ret
    263a:	00003517          	auipc	a0,0x3
    263e:	08650513          	addi	a0,a0,134 # 56c0 <pad_line+0x4c8>
    2642:	8082                	ret
    2644:	00003517          	auipc	a0,0x3
    2648:	06850513          	addi	a0,a0,104 # 56ac <pad_line+0x4b4>
    264c:	8082                	ret
    264e:	00003517          	auipc	a0,0x3
    2652:	04250513          	addi	a0,a0,66 # 5690 <pad_line+0x498>
    2656:	8082                	ret
    2658:	00003517          	auipc	a0,0x3
    265c:	02c50513          	addi	a0,a0,44 # 5684 <pad_line+0x48c>
    2660:	8082                	ret
    2662:	00003517          	auipc	a0,0x3
    2666:	00e50513          	addi	a0,a0,14 # 5670 <pad_line+0x478>
    266a:	8082                	ret
    266c:	00003517          	auipc	a0,0x3
    2670:	fe050513          	addi	a0,a0,-32 # 564c <pad_line+0x454>
    2674:	8082                	ret
    2676:	00003517          	auipc	a0,0x3
    267a:	fbe50513          	addi	a0,a0,-66 # 5634 <pad_line+0x43c>
    267e:	8082                	ret
    2680:	00003517          	auipc	a0,0x3
    2684:	fa050513          	addi	a0,a0,-96 # 5620 <pad_line+0x428>
    2688:	8082                	ret
    268a:	00003517          	auipc	a0,0x3
    268e:	f7e50513          	addi	a0,a0,-130 # 5608 <pad_line+0x410>
    2692:	8082                	ret
    2694:	00003517          	auipc	a0,0x3
    2698:	07c50513          	addi	a0,a0,124 # 5710 <pad_line+0x518>
    269c:	8082                	ret
    269e:	00003517          	auipc	a0,0x3
    26a2:	f5a50513          	addi	a0,a0,-166 # 55f8 <pad_line+0x400>
    26a6:	8082                	ret
    26a8:	00003517          	auipc	a0,0x3
    26ac:	f4850513          	addi	a0,a0,-184 # 55f0 <pad_line+0x3f8>
    26b0:	8082                	ret
    26b2:	00003517          	auipc	a0,0x3
    26b6:	f1a50513          	addi	a0,a0,-230 # 55cc <pad_line+0x3d4>
    26ba:	8082                	ret
    26bc:	00003517          	auipc	a0,0x3
    26c0:	ee450513          	addi	a0,a0,-284 # 55a0 <pad_line+0x3a8>
    26c4:	8082                	ret
    26c6:	00003517          	auipc	a0,0x3
    26ca:	ebe50513          	addi	a0,a0,-322 # 5584 <pad_line+0x38c>
    26ce:	8082                	ret
    26d0:	00003517          	auipc	a0,0x3
    26d4:	ea050513          	addi	a0,a0,-352 # 5570 <pad_line+0x378>
    26d8:	8082                	ret
    26da:	00003517          	auipc	a0,0x3
    26de:	e6650513          	addi	a0,a0,-410 # 5540 <pad_line+0x348>
    26e2:	8082                	ret
    26e4:	00003517          	auipc	a0,0x3
    26e8:	e5050513          	addi	a0,a0,-432 # 5534 <pad_line+0x33c>
    26ec:	8082                	ret
    26ee:	00003517          	auipc	a0,0x3
    26f2:	e3650513          	addi	a0,a0,-458 # 5524 <pad_line+0x32c>
    26f6:	8082                	ret
    26f8:	00003517          	auipc	a0,0x3
    26fc:	e1450513          	addi	a0,a0,-492 # 550c <pad_line+0x314>
    2700:	8082                	ret
    2702:	00003517          	auipc	a0,0x3
    2706:	dfa50513          	addi	a0,a0,-518 # 54fc <pad_line+0x304>
    270a:	8082                	ret
    270c:	00003517          	auipc	a0,0x3
    2710:	dc850513          	addi	a0,a0,-568 # 54d4 <pad_line+0x2dc>
    2714:	8082                	ret
    2716:	00003517          	auipc	a0,0x3
    271a:	d9a50513          	addi	a0,a0,-614 # 54b0 <pad_line+0x2b8>
    271e:	8082                	ret
    2720:	00003517          	auipc	a0,0x3
    2724:	d8050513          	addi	a0,a0,-640 # 54a0 <pad_line+0x2a8>
    2728:	8082                	ret
    272a:	00003517          	auipc	a0,0x3
    272e:	d5e50513          	addi	a0,a0,-674 # 5488 <pad_line+0x290>
    2732:	8082                	ret
    2734:	00003517          	auipc	a0,0x3
    2738:	d3450513          	addi	a0,a0,-716 # 5468 <pad_line+0x270>
    273c:	8082                	ret
    273e:	00003517          	auipc	a0,0x3
    2742:	d0a50513          	addi	a0,a0,-758 # 5448 <pad_line+0x250>
    2746:	8082                	ret
    2748:	00003517          	auipc	a0,0x3
    274c:	ca850513          	addi	a0,a0,-856 # 53f0 <pad_line+0x1f8>
    2750:	8082                	ret
    2752:	00003517          	auipc	a0,0x3
    2756:	c8e50513          	addi	a0,a0,-882 # 53e0 <pad_line+0x1e8>
    275a:	8082                	ret
    275c:	00003517          	auipc	a0,0x3
    2760:	c4450513          	addi	a0,a0,-956 # 53a0 <pad_line+0x1a8>
    2764:	8082                	ret
    2766:	00003517          	auipc	a0,0x3
    276a:	c2a50513          	addi	a0,a0,-982 # 5390 <pad_line+0x198>
    276e:	8082                	ret
    2770:	00003517          	auipc	a0,0x3
    2774:	c0c50513          	addi	a0,a0,-1012 # 537c <pad_line+0x184>
    2778:	8082                	ret
    277a:	00003517          	auipc	a0,0x3
    277e:	bf650513          	addi	a0,a0,-1034 # 5370 <pad_line+0x178>
    2782:	8082                	ret
    2784:	00003517          	auipc	a0,0x3
    2788:	bd450513          	addi	a0,a0,-1068 # 5358 <pad_line+0x160>
    278c:	8082                	ret
    278e:	00003517          	auipc	a0,0x3
    2792:	bbe50513          	addi	a0,a0,-1090 # 534c <pad_line+0x154>
    2796:	8082                	ret
    2798:	00003517          	auipc	a0,0x3
    279c:	ba050513          	addi	a0,a0,-1120 # 5338 <pad_line+0x140>
    27a0:	8082                	ret
    27a2:	00003517          	auipc	a0,0x3
    27a6:	b8250513          	addi	a0,a0,-1150 # 5324 <pad_line+0x12c>
    27aa:	8082                	ret
    27ac:	00003517          	auipc	a0,0x3
    27b0:	b6450513          	addi	a0,a0,-1180 # 5310 <pad_line+0x118>
    27b4:	8082                	ret
    27b6:	00003517          	auipc	a0,0x3
    27ba:	b2e50513          	addi	a0,a0,-1234 # 52e4 <pad_line+0xec>
    27be:	8082                	ret
    27c0:	00003517          	auipc	a0,0x3
    27c4:	b1450513          	addi	a0,a0,-1260 # 52d4 <pad_line+0xdc>
    27c8:	8082                	ret
    27ca:	00003517          	auipc	a0,0x3
    27ce:	ada50513          	addi	a0,a0,-1318 # 52a4 <pad_line+0xac>
    27d2:	8082                	ret
    27d4:	00003517          	auipc	a0,0x3
    27d8:	abc50513          	addi	a0,a0,-1348 # 5290 <pad_line+0x98>
    27dc:	8082                	ret
    27de:	00003517          	auipc	a0,0x3
    27e2:	a9650513          	addi	a0,a0,-1386 # 5274 <pad_line+0x7c>
    27e6:	8082                	ret
    27e8:	00003517          	auipc	a0,0x3
    27ec:	a8050513          	addi	a0,a0,-1408 # 5268 <pad_line+0x70>
    27f0:	8082                	ret
    27f2:	00003517          	auipc	a0,0x3
    27f6:	a5e50513          	addi	a0,a0,-1442 # 5250 <pad_line+0x58>
    27fa:	8082                	ret
    27fc:	00003517          	auipc	a0,0x3
    2800:	a4450513          	addi	a0,a0,-1468 # 5240 <pad_line+0x48>
    2804:	8082                	ret
    2806:	00003517          	auipc	a0,0x3
    280a:	a1e50513          	addi	a0,a0,-1506 # 5224 <pad_line+0x2c>
    280e:	8082                	ret
    2810:	00003517          	auipc	a0,0x3
    2814:	10050513          	addi	a0,a0,256 # 5910 <pad_line+0x718>
    2818:	8082                	ret
    281a:	00003517          	auipc	a0,0x3
    281e:	9fe50513          	addi	a0,a0,-1538 # 5218 <pad_line+0x20>
    2822:	8082                	ret
    2824:	00003517          	auipc	a0,0x3
    2828:	98850513          	addi	a0,a0,-1656 # 51ac <sg_usi_config+0x74>
    282c:	b9c9                	j	24fe <_strerror_r+0x34>
    282e:	86aa                	mv	a3,a0
    2830:	b1d1                	j	24f4 <_strerror_r+0x2a>

00002832 <strerror>:
    2832:	85aa                	mv	a1,a0
    2834:	0001a503          	lw	a0,0(gp) # 200004e8 <_impure_ptr>
    2838:	4681                	li	a3,0
    283a:	4601                	li	a2,0
    283c:	b179                	j	24ca <_strerror_r>

0000283e <strerror_l>:
    283e:	85aa                	mv	a1,a0
    2840:	0001a503          	lw	a0,0(gp) # 200004e8 <_impure_ptr>
    2844:	4681                	li	a3,0
    2846:	4601                	li	a2,0
    2848:	b149                	j	24ca <_strerror_r>
	...

0000284c <strlen>:
    284c:	00357793          	andi	a5,a0,3
    2850:	872a                	mv	a4,a0
    2852:	ef9d                	bnez	a5,2890 <strlen+0x44>
    2854:	7f7f86b7          	lui	a3,0x7f7f8
    2858:	f7f68693          	addi	a3,a3,-129 # 7f7f7f7f <__heap_end+0x5f7c7f7f>
    285c:	55fd                	li	a1,-1
    285e:	4310                	lw	a2,0(a4)
    2860:	0711                	addi	a4,a4,4
    2862:	00d677b3          	and	a5,a2,a3
    2866:	97b6                	add	a5,a5,a3
    2868:	8fd1                	or	a5,a5,a2
    286a:	8fd5                	or	a5,a5,a3
    286c:	feb789e3          	beq	a5,a1,285e <strlen+0x12>
    2870:	ffc74683          	lbu	a3,-4(a4)
    2874:	ffd74603          	lbu	a2,-3(a4)
    2878:	ffe74783          	lbu	a5,-2(a4)
    287c:	8f09                	sub	a4,a4,a0
    287e:	c695                	beqz	a3,28aa <strlen+0x5e>
    2880:	02060263          	beqz	a2,28a4 <strlen+0x58>
    2884:	00f03533          	snez	a0,a5
    2888:	953a                	add	a0,a0,a4
    288a:	1579                	addi	a0,a0,-2
    288c:	8082                	ret
    288e:	d2f9                	beqz	a3,2854 <strlen+0x8>
    2890:	00074783          	lbu	a5,0(a4)
    2894:	0705                	addi	a4,a4,1
    2896:	00377693          	andi	a3,a4,3
    289a:	fbf5                	bnez	a5,288e <strlen+0x42>
    289c:	8f09                	sub	a4,a4,a0
    289e:	fff70513          	addi	a0,a4,-1
    28a2:	8082                	ret
    28a4:	ffd70513          	addi	a0,a4,-3
    28a8:	8082                	ret
    28aa:	ffc70513          	addi	a0,a4,-4
    28ae:	8082                	ret
	...

000028b2 <_strtol_l.part.0>:
    28b2:	1111                	addi	sp,sp,-28
    28b4:	c82a                	sw	a0,16(sp)
    28b6:	cc22                	sw	s0,24(sp)
    28b8:	ca26                	sw	s1,20(sp)
    28ba:	872e                	mv	a4,a1
    28bc:	c42e                	sw	a1,8(sp)
    28be:	c032                	sw	a2,0(sp)
    28c0:	00002517          	auipc	a0,0x2
    28c4:	6b550513          	addi	a0,a0,1717 # 4f75 <_ctype_+0x1>
    28c8:	00074783          	lbu	a5,0(a4)
    28cc:	85ba                	mv	a1,a4
    28ce:	0705                	addi	a4,a4,1
    28d0:	00f50633          	add	a2,a0,a5
    28d4:	00064603          	lbu	a2,0(a2)
    28d8:	8a21                	andi	a2,a2,8
    28da:	f67d                	bnez	a2,28c8 <_strtol_l.part.0+0x16>
    28dc:	02d00613          	li	a2,45
    28e0:	0ec78063          	beq	a5,a2,29c0 <_strtol_l.part.0+0x10e>
    28e4:	02b00613          	li	a2,43
    28e8:	06c78063          	beq	a5,a2,2948 <_strtol_l.part.0+0x96>
    28ec:	800004b7          	lui	s1,0x80000
    28f0:	fff4c493          	not	s1,s1
    28f4:	c602                	sw	zero,12(sp)
    28f6:	c2bd                	beqz	a3,295c <_strtol_l.part.0+0xaa>
    28f8:	4641                	li	a2,16
    28fa:	8436                	mv	s0,a3
    28fc:	0cc68b63          	beq	a3,a2,29d2 <_strtol_l.part.0+0x120>
    2900:	0284f633          	remu	a2,s1,s0
    2904:	4581                	li	a1,0
    2906:	4501                	li	a0,0
    2908:	4325                	li	t1,9
    290a:	43e5                	li	t2,25
    290c:	0284d2b3          	divu	t0,s1,s0
    2910:	c232                	sw	a2,4(sp)
    2912:	fd078613          	addi	a2,a5,-48
    2916:	00c37863          	bgeu	t1,a2,2926 <_strtol_l.part.0+0x74>
    291a:	fbf78613          	addi	a2,a5,-65
    291e:	04c3e863          	bltu	t2,a2,296e <_strtol_l.part.0+0xbc>
    2922:	fc978613          	addi	a2,a5,-55
    2926:	04d65c63          	bge	a2,a3,297e <_strtol_l.part.0+0xcc>
    292a:	0405c063          	bltz	a1,296a <_strtol_l.part.0+0xb8>
    292e:	55fd                	li	a1,-1
    2930:	00a2e863          	bltu	t0,a0,2940 <_strtol_l.part.0+0x8e>
    2934:	06a28663          	beq	t0,a0,29a0 <_strtol_l.part.0+0xee>
    2938:	4585                	li	a1,1
    293a:	02850533          	mul	a0,a0,s0
    293e:	9532                	add	a0,a0,a2
    2940:	0705                	addi	a4,a4,1
    2942:	fff74783          	lbu	a5,-1(a4)
    2946:	b7f1                	j	2912 <_strtol_l.part.0+0x60>
    2948:	800004b7          	lui	s1,0x80000
    294c:	c602                	sw	zero,12(sp)
    294e:	00074783          	lbu	a5,0(a4)
    2952:	fff4c493          	not	s1,s1
    2956:	00258713          	addi	a4,a1,2
    295a:	fed9                	bnez	a3,28f8 <_strtol_l.part.0+0x46>
    295c:	03000693          	li	a3,48
    2960:	08d78d63          	beq	a5,a3,29fa <_strtol_l.part.0+0x148>
    2964:	4429                	li	s0,10
    2966:	46a9                	li	a3,10
    2968:	bf61                	j	2900 <_strtol_l.part.0+0x4e>
    296a:	55fd                	li	a1,-1
    296c:	bfd1                	j	2940 <_strtol_l.part.0+0x8e>
    296e:	f9f78613          	addi	a2,a5,-97
    2972:	00c3e663          	bltu	t2,a2,297e <_strtol_l.part.0+0xcc>
    2976:	fa978613          	addi	a2,a5,-87
    297a:	fad648e3          	blt	a2,a3,292a <_strtol_l.part.0+0x78>
    297e:	0205c563          	bltz	a1,29a8 <_strtol_l.part.0+0xf6>
    2982:	47b2                	lw	a5,12(sp)
    2984:	c399                	beqz	a5,298a <_strtol_l.part.0+0xd8>
    2986:	40a00533          	neg	a0,a0
    298a:	4782                	lw	a5,0(sp)
    298c:	c791                	beqz	a5,2998 <_strtol_l.part.0+0xe6>
    298e:	08059163          	bnez	a1,2a10 <_strtol_l.part.0+0x15e>
    2992:	4782                	lw	a5,0(sp)
    2994:	4722                	lw	a4,8(sp)
    2996:	c398                	sw	a4,0(a5)
    2998:	4462                	lw	s0,24(sp)
    299a:	44d2                	lw	s1,20(sp)
    299c:	0171                	addi	sp,sp,28
    299e:	8082                	ret
    29a0:	4792                	lw	a5,4(sp)
    29a2:	f8c7cfe3          	blt	a5,a2,2940 <_strtol_l.part.0+0x8e>
    29a6:	bf49                	j	2938 <_strtol_l.part.0+0x86>
    29a8:	46c2                	lw	a3,16(sp)
    29aa:	02200793          	li	a5,34
    29ae:	8526                	mv	a0,s1
    29b0:	c29c                	sw	a5,0(a3)
    29b2:	4782                	lw	a5,0(sp)
    29b4:	d3f5                	beqz	a5,2998 <_strtol_l.part.0+0xe6>
    29b6:	fff70793          	addi	a5,a4,-1
    29ba:	c43e                	sw	a5,8(sp)
    29bc:	8526                	mv	a0,s1
    29be:	bfd1                	j	2992 <_strtol_l.part.0+0xe0>
    29c0:	4605                	li	a2,1
    29c2:	00074783          	lbu	a5,0(a4)
    29c6:	800004b7          	lui	s1,0x80000
    29ca:	00258713          	addi	a4,a1,2
    29ce:	c632                	sw	a2,12(sp)
    29d0:	b71d                	j	28f6 <_strtol_l.part.0+0x44>
    29d2:	03000613          	li	a2,48
    29d6:	00c79a63          	bne	a5,a2,29ea <_strtol_l.part.0+0x138>
    29da:	00074603          	lbu	a2,0(a4)
    29de:	05800593          	li	a1,88
    29e2:	0df67613          	andi	a2,a2,223
    29e6:	00b60463          	beq	a2,a1,29ee <_strtol_l.part.0+0x13c>
    29ea:	4441                	li	s0,16
    29ec:	bf11                	j	2900 <_strtol_l.part.0+0x4e>
    29ee:	00174783          	lbu	a5,1(a4)
    29f2:	4441                	li	s0,16
    29f4:	0709                	addi	a4,a4,2
    29f6:	46c1                	li	a3,16
    29f8:	b721                	j	2900 <_strtol_l.part.0+0x4e>
    29fa:	00074683          	lbu	a3,0(a4)
    29fe:	05800613          	li	a2,88
    2a02:	0df6f693          	andi	a3,a3,223
    2a06:	fec684e3          	beq	a3,a2,29ee <_strtol_l.part.0+0x13c>
    2a0a:	4421                	li	s0,8
    2a0c:	46a1                	li	a3,8
    2a0e:	bdcd                	j	2900 <_strtol_l.part.0+0x4e>
    2a10:	84aa                	mv	s1,a0
    2a12:	b755                	j	29b6 <_strtol_l.part.0+0x104>

00002a14 <_strtol_r>:
    2a14:	4705                	li	a4,1
    2a16:	00e68763          	beq	a3,a4,2a24 <_strtol_r+0x10>
    2a1a:	02400713          	li	a4,36
    2a1e:	00d76363          	bltu	a4,a3,2a24 <_strtol_r+0x10>
    2a22:	bd41                	j	28b2 <_strtol_l.part.0>
    2a24:	1151                	addi	sp,sp,-12
    2a26:	c406                	sw	ra,8(sp)
    2a28:	2421                	jal	2c30 <__errno>
    2a2a:	40a2                	lw	ra,8(sp)
    2a2c:	47d9                	li	a5,22
    2a2e:	c11c                	sw	a5,0(a0)
    2a30:	4501                	li	a0,0
    2a32:	0131                	addi	sp,sp,12
    2a34:	8082                	ret

00002a36 <strtol_l>:
    2a36:	4705                	li	a4,1
    2a38:	00e60d63          	beq	a2,a4,2a52 <strtol_l+0x1c>
    2a3c:	02400713          	li	a4,36
    2a40:	00c76963          	bltu	a4,a2,2a52 <strtol_l+0x1c>
    2a44:	87aa                	mv	a5,a0
    2a46:	0001a503          	lw	a0,0(gp) # 200004e8 <_impure_ptr>
    2a4a:	86b2                	mv	a3,a2
    2a4c:	862e                	mv	a2,a1
    2a4e:	85be                	mv	a1,a5
    2a50:	b58d                	j	28b2 <_strtol_l.part.0>
    2a52:	1151                	addi	sp,sp,-12
    2a54:	c406                	sw	ra,8(sp)
    2a56:	2ae9                	jal	2c30 <__errno>
    2a58:	40a2                	lw	ra,8(sp)
    2a5a:	47d9                	li	a5,22
    2a5c:	c11c                	sw	a5,0(a0)
    2a5e:	4501                	li	a0,0
    2a60:	0131                	addi	sp,sp,12
    2a62:	8082                	ret

00002a64 <strtol>:
    2a64:	4705                	li	a4,1
    2a66:	00e60d63          	beq	a2,a4,2a80 <strtol+0x1c>
    2a6a:	02400713          	li	a4,36
    2a6e:	00c76963          	bltu	a4,a2,2a80 <strtol+0x1c>
    2a72:	87aa                	mv	a5,a0
    2a74:	0001a503          	lw	a0,0(gp) # 200004e8 <_impure_ptr>
    2a78:	86b2                	mv	a3,a2
    2a7a:	862e                	mv	a2,a1
    2a7c:	85be                	mv	a1,a5
    2a7e:	bd15                	j	28b2 <_strtol_l.part.0>
    2a80:	1151                	addi	sp,sp,-12
    2a82:	c406                	sw	ra,8(sp)
    2a84:	2275                	jal	2c30 <__errno>
    2a86:	40a2                	lw	ra,8(sp)
    2a88:	47d9                	li	a5,22
    2a8a:	c11c                	sw	a5,0(a0)
    2a8c:	4501                	li	a0,0
    2a8e:	0131                	addi	sp,sp,12
    2a90:	8082                	ret

00002a92 <_strtoul_l.constprop.0>:
    2a92:	1121                	addi	sp,sp,-24
    2a94:	ca22                	sw	s0,20(sp)
    2a96:	c826                	sw	s1,16(sp)
    2a98:	c62a                	sw	a0,12(sp)
    2a9a:	c032                	sw	a2,0(sp)
    2a9c:	872e                	mv	a4,a1
    2a9e:	00002317          	auipc	t1,0x2
    2aa2:	4d730313          	addi	t1,t1,1239 # 4f75 <_ctype_+0x1>
    2aa6:	00074783          	lbu	a5,0(a4)
    2aaa:	853a                	mv	a0,a4
    2aac:	0705                	addi	a4,a4,1
    2aae:	00f30633          	add	a2,t1,a5
    2ab2:	00064603          	lbu	a2,0(a2)
    2ab6:	8a21                	andi	a2,a2,8
    2ab8:	f67d                	bnez	a2,2aa6 <_strtoul_l.constprop.0+0x14>
    2aba:	02d00613          	li	a2,45
    2abe:	0cc78c63          	beq	a5,a2,2b96 <_strtoul_l.constprop.0+0x104>
    2ac2:	02b00613          	li	a2,43
    2ac6:	c402                	sw	zero,8(sp)
    2ac8:	06c78a63          	beq	a5,a2,2b3c <_strtoul_l.constprop.0+0xaa>
    2acc:	00068d63          	beqz	a3,2ae6 <_strtoul_l.constprop.0+0x54>
    2ad0:	4641                	li	a2,16
    2ad2:	0cc68963          	beq	a3,a2,2ba4 <_strtoul_l.constprop.0+0x112>
    2ad6:	567d                	li	a2,-1
    2ad8:	02d653b3          	divu	t2,a2,a3
    2adc:	84b6                	mv	s1,a3
    2ade:	02d67633          	remu	a2,a2,a3
    2ae2:	c232                	sw	a2,4(sp)
    2ae4:	a829                	j	2afe <_strtoul_l.constprop.0+0x6c>
    2ae6:	03000693          	li	a3,48
    2aea:	0ed78463          	beq	a5,a3,2bd2 <_strtoul_l.constprop.0+0x140>
    2aee:	4695                	li	a3,5
    2af0:	1999a3b7          	lui	t2,0x1999a
    2af4:	c236                	sw	a3,4(sp)
    2af6:	99938393          	addi	t2,t2,-1639 # 19999999 <__min_heap_size+0x19979999>
    2afa:	44a9                	li	s1,10
    2afc:	46a9                	li	a3,10
    2afe:	4301                	li	t1,0
    2b00:	4501                	li	a0,0
    2b02:	42a5                	li	t0,9
    2b04:	4465                	li	s0,25
    2b06:	fd078613          	addi	a2,a5,-48
    2b0a:	00c2f863          	bgeu	t0,a2,2b1a <_strtoul_l.constprop.0+0x88>
    2b0e:	fbf78613          	addi	a2,a5,-65
    2b12:	02c46c63          	bltu	s0,a2,2b4a <_strtoul_l.constprop.0+0xb8>
    2b16:	fc978613          	addi	a2,a5,-55
    2b1a:	04d65063          	bge	a2,a3,2b5a <_strtoul_l.constprop.0+0xc8>
    2b1e:	02034463          	bltz	t1,2b46 <_strtoul_l.constprop.0+0xb4>
    2b22:	537d                	li	t1,-1
    2b24:	00a3e863          	bltu	t2,a0,2b34 <_strtoul_l.constprop.0+0xa2>
    2b28:	04750963          	beq	a0,t2,2b7a <_strtoul_l.constprop.0+0xe8>
    2b2c:	02950533          	mul	a0,a0,s1
    2b30:	4305                	li	t1,1
    2b32:	9532                	add	a0,a0,a2
    2b34:	0705                	addi	a4,a4,1
    2b36:	fff74783          	lbu	a5,-1(a4)
    2b3a:	b7f1                	j	2b06 <_strtoul_l.constprop.0+0x74>
    2b3c:	00074783          	lbu	a5,0(a4)
    2b40:	00250713          	addi	a4,a0,2
    2b44:	b761                	j	2acc <_strtoul_l.constprop.0+0x3a>
    2b46:	537d                	li	t1,-1
    2b48:	b7f5                	j	2b34 <_strtoul_l.constprop.0+0xa2>
    2b4a:	f9f78613          	addi	a2,a5,-97
    2b4e:	00c46663          	bltu	s0,a2,2b5a <_strtoul_l.constprop.0+0xc8>
    2b52:	fa978613          	addi	a2,a5,-87
    2b56:	fcd644e3          	blt	a2,a3,2b1e <_strtoul_l.constprop.0+0x8c>
    2b5a:	02034463          	bltz	t1,2b82 <_strtoul_l.constprop.0+0xf0>
    2b5e:	47a2                	lw	a5,8(sp)
    2b60:	c399                	beqz	a5,2b66 <_strtoul_l.constprop.0+0xd4>
    2b62:	40a00533          	neg	a0,a0
    2b66:	4782                	lw	a5,0(sp)
    2b68:	c789                	beqz	a5,2b72 <_strtoul_l.constprop.0+0xe0>
    2b6a:	02031363          	bnez	t1,2b90 <_strtoul_l.constprop.0+0xfe>
    2b6e:	4782                	lw	a5,0(sp)
    2b70:	c38c                	sw	a1,0(a5)
    2b72:	4452                	lw	s0,20(sp)
    2b74:	44c2                	lw	s1,16(sp)
    2b76:	0161                	addi	sp,sp,24
    2b78:	8082                	ret
    2b7a:	4792                	lw	a5,4(sp)
    2b7c:	fac7cce3          	blt	a5,a2,2b34 <_strtoul_l.constprop.0+0xa2>
    2b80:	b775                	j	2b2c <_strtoul_l.constprop.0+0x9a>
    2b82:	46b2                	lw	a3,12(sp)
    2b84:	02200793          	li	a5,34
    2b88:	557d                	li	a0,-1
    2b8a:	c29c                	sw	a5,0(a3)
    2b8c:	4782                	lw	a5,0(sp)
    2b8e:	d3f5                	beqz	a5,2b72 <_strtoul_l.constprop.0+0xe0>
    2b90:	fff70593          	addi	a1,a4,-1
    2b94:	bfe9                	j	2b6e <_strtoul_l.constprop.0+0xdc>
    2b96:	00074783          	lbu	a5,0(a4)
    2b9a:	4705                	li	a4,1
    2b9c:	c43a                	sw	a4,8(sp)
    2b9e:	00250713          	addi	a4,a0,2
    2ba2:	b72d                	j	2acc <_strtoul_l.constprop.0+0x3a>
    2ba4:	03000613          	li	a2,48
    2ba8:	04c79c63          	bne	a5,a2,2c00 <_strtoul_l.constprop.0+0x16e>
    2bac:	00074603          	lbu	a2,0(a4)
    2bb0:	05800513          	li	a0,88
    2bb4:	0df67613          	andi	a2,a2,223
    2bb8:	02a61d63          	bne	a2,a0,2bf2 <_strtoul_l.constprop.0+0x160>
    2bbc:	46bd                	li	a3,15
    2bbe:	100003b7          	lui	t2,0x10000
    2bc2:	00174783          	lbu	a5,1(a4)
    2bc6:	c236                	sw	a3,4(sp)
    2bc8:	0709                	addi	a4,a4,2
    2bca:	13fd                	addi	t2,t2,-1
    2bcc:	44c1                	li	s1,16
    2bce:	46c1                	li	a3,16
    2bd0:	b73d                	j	2afe <_strtoul_l.constprop.0+0x6c>
    2bd2:	00074683          	lbu	a3,0(a4)
    2bd6:	05800613          	li	a2,88
    2bda:	0df6f693          	andi	a3,a3,223
    2bde:	fcc68fe3          	beq	a3,a2,2bbc <_strtoul_l.constprop.0+0x12a>
    2be2:	469d                	li	a3,7
    2be4:	200003b7          	lui	t2,0x20000
    2be8:	c236                	sw	a3,4(sp)
    2bea:	13fd                	addi	t2,t2,-1
    2bec:	44a1                	li	s1,8
    2bee:	46a1                	li	a3,8
    2bf0:	b739                	j	2afe <_strtoul_l.constprop.0+0x6c>
    2bf2:	53fd                	li	t2,-1
    2bf4:	463d                	li	a2,15
    2bf6:	02d3d3b3          	divu	t2,t2,a3
    2bfa:	44c1                	li	s1,16
    2bfc:	c232                	sw	a2,4(sp)
    2bfe:	b701                	j	2afe <_strtoul_l.constprop.0+0x6c>
    2c00:	463d                	li	a2,15
    2c02:	100003b7          	lui	t2,0x10000
    2c06:	c232                	sw	a2,4(sp)
    2c08:	13fd                	addi	t2,t2,-1
    2c0a:	44c1                	li	s1,16
    2c0c:	bdcd                	j	2afe <_strtoul_l.constprop.0+0x6c>

00002c0e <_strtoul_r>:
    2c0e:	b551                	j	2a92 <_strtoul_l.constprop.0>

00002c10 <strtoul_l>:
    2c10:	87aa                	mv	a5,a0
    2c12:	0001a503          	lw	a0,0(gp) # 200004e8 <_impure_ptr>
    2c16:	86b2                	mv	a3,a2
    2c18:	862e                	mv	a2,a1
    2c1a:	85be                	mv	a1,a5
    2c1c:	bd9d                	j	2a92 <_strtoul_l.constprop.0>

00002c1e <strtoul>:
    2c1e:	87aa                	mv	a5,a0
    2c20:	0001a503          	lw	a0,0(gp) # 200004e8 <_impure_ptr>
    2c24:	86b2                	mv	a3,a2
    2c26:	862e                	mv	a2,a1
    2c28:	85be                	mv	a1,a5
    2c2a:	b5a5                	j	2a92 <_strtoul_l.constprop.0>

00002c2c <_user_strerror>:
    2c2c:	4501                	li	a0,0
    2c2e:	8082                	ret

00002c30 <__errno>:
    2c30:	0001a503          	lw	a0,0(gp) # 200004e8 <_impure_ptr>
    2c34:	8082                	ret

00002c36 <board_init>:

extern int clock_timer_init(void);
extern int clock_timer_start(void);

void board_init(void)
{
    2c36:	1151                	addi	sp,sp,-12
    2c38:	c406                	sw	ra,8(sp)
    int32_t ret = 0;
    /* init the console*/
    clock_timer_init();
    2c3a:	67d000ef          	jal	ra,3ab6 <clock_timer_init>
    clock_timer_start();
    2c3e:	6f3000ef          	jal	ra,3b30 <clock_timer_start>

    console_handle = csi_usart_initialize(CONSOLE_IDX, NULL);
    2c42:	4581                	li	a1,0
    2c44:	4501                	li	a0,0
    2c46:	223000ef          	jal	ra,3668 <csi_usart_initialize>
    ret = csi_usart_config(console_handle, 115200, USART_MODE_ASYNCHRONOUS, USART_PARITY_NONE, USART_STOP_BITS_1, USART_DATA_BITS_8);

    if (ret < 0) {
        return;
    }
}
    2c4a:	40a2                	lw	ra,8(sp)
    console_handle = csi_usart_initialize(CONSOLE_IDX, NULL);
    2c4c:	02a1a423          	sw	a0,40(gp) # 20000510 <console_handle>
    ret = csi_usart_config(console_handle, 115200, USART_MODE_ASYNCHRONOUS, USART_PARITY_NONE, USART_STOP_BITS_1, USART_DATA_BITS_8);
    2c50:	65f1                	lui	a1,0x1c
    2c52:	478d                	li	a5,3
    2c54:	4701                	li	a4,0
    2c56:	4681                	li	a3,0
    2c58:	4601                	li	a2,0
    2c5a:	20058593          	addi	a1,a1,512 # 1c200 <__ctor_end__+0x168e8>
}
    2c5e:	0131                	addi	sp,sp,12
    ret = csi_usart_config(console_handle, 115200, USART_MODE_ASYNCHRONOUS, USART_PARITY_NONE, USART_STOP_BITS_1, USART_DATA_BITS_8);
    2c60:	20b0006f          	j	366a <csi_usart_config>

00002c64 <drv_irq_enable>:
  \details Enable a device-specific interrupt in the VIC interrupt controller.
  \param [in]      IRQn  External interrupt number. Value cannot be negative.
 */
__STATIC_INLINE void csi_vic_enable_irq(int32_t IRQn)
{
    CLIC->INTIE[IRQn] |= CLIC_INTIE_IE_Msk;
    2c64:	e000e7b7          	lui	a5,0xe000e
    2c68:	10078793          	addi	a5,a5,256 # e000e100 <__heap_end+0xbffde100>
    2c6c:	953e                	add	a0,a0,a5
    2c6e:	40054783          	lbu	a5,1024(a0)
    2c72:	0ff7f793          	andi	a5,a5,255
    2c76:	0017e793          	ori	a5,a5,1
    2c7a:	40f50023          	sb	a5,1024(a0)
#ifdef CONFIG_SYSTEM_SECURE
    csi_vic_enable_sirq(irq_num);
#else
    csi_vic_enable_irq(irq_num);
#endif
}
    2c7e:	8082                	ret

00002c80 <drv_irq_register>:
  \param[in]   irq_handler IRQ Handler.
  \return      None.
*/
void drv_irq_register(uint32_t irq_num, void *irq_handler)
{
    g_irqvector[irq_num] = irq_handler;
    2c80:	200027b7          	lui	a5,0x20002
    2c84:	050a                	slli	a0,a0,0x2
    2c86:	aec78793          	addi	a5,a5,-1300 # 20001aec <g_irqvector>
    2c8a:	97aa                	add	a5,a5,a0
    2c8c:	c38c                	sw	a1,0(a5)
}
    2c8e:	8082                	ret

00002c90 <wj_usi_set_rxfifo_th>:

static wj_usi_priv_t usi_instance[CONFIG_USI_NUM];

void wj_usi_set_rxfifo_th(wj_usi_reg_t *addr, uint32_t length)
{
    addr->USI_INTR_CTRL &= ~USI_INTR_CTRL_TH_MODE;
    2c90:	457c                	lw	a5,76(a0)
    2c92:	7741                	lui	a4,0xffff0
    2c94:	177d                	addi	a4,a4,-1
    2c96:	8ff9                	and	a5,a5,a4
    2c98:	c57c                	sw	a5,76(a0)
    addr->USI_INTR_CTRL &= USI_INTR_CTRL_RXFIFO_TH;
    2c9a:	457c                	lw	a5,76(a0)
    2c9c:	cff7f793          	andi	a5,a5,-769
    2ca0:	c57c                	sw	a5,76(a0)

    if (length >= USI_RX_MAX_FIFO) {
    2ca2:	47bd                	li	a5,15
    2ca4:	00b7f963          	bgeu	a5,a1,2cb6 <wj_usi_set_rxfifo_th+0x26>
        addr->USI_INTR_CTRL |= USI_INTR_CTRL_RXFIFO_TH_12 | USI_INTR_CTRL_TH_MODE;
    2ca8:	457c                	lw	a5,76(a0)
    2caa:	6741                	lui	a4,0x10
    2cac:	30070713          	addi	a4,a4,768 # 10300 <__ctor_end__+0xa9e8>
    } else if (length >= USI_RX_MAX_FIFO - 4) {
        addr->USI_INTR_CTRL |= USI_INTR_CTRL_RXFIFO_TH_8 | USI_INTR_CTRL_TH_MODE;
    } else if (length >= 4) {
        addr->USI_INTR_CTRL |= USI_INTR_CTRL_RXFIFO_TH_4 | USI_INTR_CTRL_TH_MODE;
    2cb0:	8fd9                	or	a5,a5,a4
    } else {
        addr->USI_INTR_CTRL |= USI_INTR_CTRL_RXFIFO_TH_4;
    2cb2:	c57c                	sw	a5,76(a0)
    }
}
    2cb4:	8082                	ret
    } else if (length >= USI_RX_MAX_FIFO - 4) {
    2cb6:	47ad                	li	a5,11
    2cb8:	00b7f763          	bgeu	a5,a1,2cc6 <wj_usi_set_rxfifo_th+0x36>
        addr->USI_INTR_CTRL |= USI_INTR_CTRL_RXFIFO_TH_8 | USI_INTR_CTRL_TH_MODE;
    2cbc:	6741                	lui	a4,0x10
    2cbe:	457c                	lw	a5,76(a0)
    2cc0:	20070713          	addi	a4,a4,512 # 10200 <__ctor_end__+0xa8e8>
    2cc4:	b7f5                	j	2cb0 <wj_usi_set_rxfifo_th+0x20>
    } else if (length >= 4) {
    2cc6:	478d                	li	a5,3
    2cc8:	00b7f763          	bgeu	a5,a1,2cd6 <wj_usi_set_rxfifo_th+0x46>
        addr->USI_INTR_CTRL |= USI_INTR_CTRL_RXFIFO_TH_4 | USI_INTR_CTRL_TH_MODE;
    2ccc:	6741                	lui	a4,0x10
    2cce:	457c                	lw	a5,76(a0)
    2cd0:	10070713          	addi	a4,a4,256 # 10100 <__ctor_end__+0xa7e8>
    2cd4:	bff1                	j	2cb0 <wj_usi_set_rxfifo_th+0x20>
        addr->USI_INTR_CTRL |= USI_INTR_CTRL_RXFIFO_TH_4;
    2cd6:	457c                	lw	a5,76(a0)
    2cd8:	1007e793          	ori	a5,a5,256
    2cdc:	bfd9                	j	2cb2 <wj_usi_set_rxfifo_th+0x22>

00002cde <wj_usi_irqhandler>:
//            CSI_DRIVER
//------------------------------------------
void wj_usi_irqhandler(int32_t idx)
{
    wj_usi_priv_t *usi_priv = &usi_instance[idx];
    wj_usi_reg_t *addr = (wj_usi_reg_t *)(usi_priv->base);
    2cde:	200017b7          	lui	a5,0x20001
    2ce2:	00351713          	slli	a4,a0,0x3
    2ce6:	71c78793          	addi	a5,a5,1820 # 2000171c <usi_instance>
    2cea:	97ba                	add	a5,a5,a4
    2cec:	439c                	lw	a5,0(a5)

    switch (addr->USI_MODE_SEL & 0x3) {
    2cee:	4705                	li	a4,1
    2cf0:	43dc                	lw	a5,4(a5)
    2cf2:	8b8d                	andi	a5,a5,3
    2cf4:	00e78863          	beq	a5,a4,2d04 <wj_usi_irqhandler+0x26>
    2cf8:	4709                	li	a4,2
    2cfa:	00e78663          	beq	a5,a4,2d06 <wj_usi_irqhandler+0x28>
    2cfe:	00079563          	bnez	a5,2d08 <wj_usi_irqhandler+0x2a>
        case USI_MODE_UART:
#ifndef  CONFIG_CHIP_PANGU
            wj_usi_usart_irqhandler(idx);
    2d02:	af01                	j	3412 <wj_usi_usart_irqhandler>
#endif
            break;

        case USI_MODE_I2C:
            wj_usi_i2c_irqhandler(idx);
    2d04:	a0a1                	j	2d4c <wj_usi_i2c_irqhandler>
            break;

        case USI_MODE_SPI:
            wj_usi_spi_irqhandler(idx);
    2d06:	acfd                	j	3004 <wj_usi_spi_irqhandler>
            break;

        default:
            return;
    }
}
    2d08:	8082                	ret

00002d0a <drv_usi_initialize>:

int32_t drv_usi_initialize(int32_t idx)
{
    2d0a:	1131                	addi	sp,sp,-20
    uint32_t base = 0u;
    uint32_t irq = 0u;

    int32_t ret = target_usi_init(idx, &base, &irq);
    2d0c:	0050                	addi	a2,sp,4
    2d0e:	858a                	mv	a1,sp
{
    2d10:	c622                	sw	s0,12(sp)
    2d12:	c806                	sw	ra,16(sp)
    2d14:	842a                	mv	s0,a0
    uint32_t base = 0u;
    2d16:	c002                	sw	zero,0(sp)
    uint32_t irq = 0u;
    2d18:	c202                	sw	zero,4(sp)
    int32_t ret = target_usi_init(idx, &base, &irq);
    2d1a:	19d000ef          	jal	ra,36b6 <target_usi_init>

    if (ret < 0 || ret >= CONFIG_USI_NUM) {
    2d1e:	4789                	li	a5,2
    2d20:	02a7e163          	bltu	a5,a0,2d42 <drv_usi_initialize+0x38>
        return ERR_USI(DRV_ERROR_PARAMETER);
    }

    wj_usi_priv_t *usi_priv = &usi_instance[idx];
    usi_priv->base = base;
    2d24:	4782                	lw	a5,0(sp)
    2d26:	20001537          	lui	a0,0x20001
    2d2a:	040e                	slli	s0,s0,0x3
    2d2c:	71c50513          	addi	a0,a0,1820 # 2000171c <usi_instance>
    2d30:	9522                	add	a0,a0,s0
    2d32:	c11c                	sw	a5,0(a0)
    usi_priv->irq  = irq;
    2d34:	4792                	lw	a5,4(sp)
    2d36:	c15c                	sw	a5,4(a0)

    return 0;
    2d38:	4501                	li	a0,0
}
    2d3a:	40c2                	lw	ra,16(sp)
    2d3c:	4432                	lw	s0,12(sp)
    2d3e:	0151                	addi	sp,sp,20
    2d40:	8082                	ret
        return ERR_USI(DRV_ERROR_PARAMETER);
    2d42:	81180537          	lui	a0,0x81180
    2d46:	08450513          	addi	a0,a0,132 # 81180084 <__heap_end+0x61150084>
    2d4a:	bfc5                	j	2d3a <drv_usi_initialize+0x30>

00002d4c <wj_usi_i2c_irqhandler>:

}
void wj_usi_i2c_irqhandler(int32_t idx)
{
    wj_usi_iic_priv_t *iic_priv = &iic_instance[idx];
    wj_usi_reg_t *addr = (wj_usi_reg_t *)(iic_priv->base);
    2d4c:	03000713          	li	a4,48
    2d50:	02e50733          	mul	a4,a0,a4
    2d54:	200017b7          	lui	a5,0x20001
    2d58:	73478693          	addi	a3,a5,1844 # 20001734 <iic_instance>
{
    2d5c:	1121                	addi	sp,sp,-24
    2d5e:	c822                	sw	s0,16(sp)

    uint32_t intr_state = addr->USI_INTR_STA & 0x3ffff;

    if ((intr_state & USI_INT_I2CM_LOSE_ARBI) || (intr_state & USI_INT_I2C_NACK)) {
    2d60:	6599                	lui	a1,0x6
{
    2d62:	c626                	sw	s1,12(sp)
    2d64:	ca06                	sw	ra,20(sp)
    2d66:	84aa                	mv	s1,a0
    wj_usi_reg_t *addr = (wj_usi_reg_t *)(iic_priv->base);
    2d68:	73478793          	addi	a5,a5,1844
    2d6c:	9736                	add	a4,a4,a3
    2d6e:	4300                	lw	s0,0(a4)
    uint32_t intr_state = addr->USI_INTR_STA & 0x3ffff;
    2d70:	4874                	lw	a3,84(s0)
    2d72:	00e69313          	slli	t1,a3,0xe
    if ((intr_state & USI_INT_I2CM_LOSE_ARBI) || (intr_state & USI_INT_I2C_NACK)) {
    2d76:	8df5                	and	a1,a1,a3
    uint32_t intr_state = addr->USI_INTR_STA & 0x3ffff;
    2d78:	00e35313          	srli	t1,t1,0xe
    if ((intr_state & USI_INT_I2CM_LOSE_ARBI) || (intr_state & USI_INT_I2C_NACK)) {
    2d7c:	c19d                	beqz	a1,2da2 <wj_usi_i2c_irqhandler+0x56>
        /* If arbitration fault, it indicates either a slave device not
        * responding as expected, or other master which is not supported
        * by this SW.
        */
        iic_priv->status    = IIC_STATE_DONE;
    2d7e:	4691                	li	a3,4
    2d80:	d714                	sw	a3,40(a4)
        addr->USI_EN = 0;
    2d82:	00042023          	sw	zero,0(s0) # 80000 <__min_heap_size+0x60000>
        addr->USI_INTR_UNMASK = 0;
    2d86:	04042e23          	sw	zero,92(s0)
        addr->USI_INTR_EN = 0;
        addr->USI_INTR_CLR = intr_state;

        if (iic_priv->cb_event) {
    2d8a:	4718                	lw	a4,8(a4)
        addr->USI_INTR_EN = 0;
    2d8c:	04042823          	sw	zero,80(s0)
        addr->USI_INTR_CLR = intr_state;
    2d90:	06642023          	sw	t1,96(s0)
        if (iic_priv->cb_event) {
    2d94:	cf11                	beqz	a4,2db0 <wj_usi_i2c_irqhandler+0x64>
            if (iic_priv->cb_event) {
                iic_priv->cb_event(idx, IIC_EVENT_ARBITRATION_LOST);
            }
        }
    }
}
    2d96:	4442                	lw	s0,16(sp)
    2d98:	40d2                	lw	ra,20(sp)
    2d9a:	44b2                	lw	s1,12(sp)
            iic_priv->cb_event(idx, IIC_EVENT_BUS_ERROR);
    2d9c:	459d                	li	a1,7
}
    2d9e:	0161                	addi	sp,sp,24
            iic_priv->cb_event(idx, IIC_EVENT_BUS_ERROR);
    2da0:	8702                	jr	a4
    switch (iic_priv->status) {
    2da2:	5710                	lw	a2,40(a4)
    2da4:	4505                	li	a0,1
    2da6:	02a60663          	beq	a2,a0,2dd2 <wj_usi_i2c_irqhandler+0x86>
    2daa:	4589                	li	a1,2
    2dac:	10b60263          	beq	a2,a1,2eb0 <wj_usi_i2c_irqhandler+0x164>
            if (iic_priv->cb_event) {
    2db0:	03000713          	li	a4,48
    2db4:	02e48733          	mul	a4,s1,a4
            addr->USI_INTR_CLR = intr_state;
    2db8:	06642023          	sw	t1,96(s0)
            addr->USI_INTR_UNMASK = 0;
    2dbc:	04042e23          	sw	zero,92(s0)
            addr->USI_INTR_EN = 0;
    2dc0:	04042823          	sw	zero,80(s0)
            addr->USI_EN = 0;
    2dc4:	00042023          	sw	zero,0(s0)
            if (iic_priv->cb_event) {
    2dc8:	97ba                	add	a5,a5,a4
    2dca:	479c                	lw	a5,8(a5)
    2dcc:	c7e1                	beqz	a5,2e94 <wj_usi_i2c_irqhandler+0x148>
                iic_priv->cb_event(idx, IIC_EVENT_ARBITRATION_LOST);
    2dce:	4599                	li	a1,6
    2dd0:	a2d9                	j	2f96 <wj_usi_i2c_irqhandler+0x24a>
    if (intr_stat & USI_INT_TX_EMPTY) {
    2dd2:	0026f513          	andi	a0,a3,2
    uint8_t emptyfifo = 0;
    2dd6:	4601                	li	a2,0
    if (intr_stat & USI_INT_TX_EMPTY) {
    2dd8:	cd05                	beqz	a0,2e10 <wj_usi_i2c_irqhandler+0xc4>
        uint32_t remain_txfifo = iic_priv->tx_total_num - iic_priv->tx_cnt;
    2dda:	5350                	lw	a2,36(a4)
    2ddc:	4b08                	lw	a0,16(a4)
        emptyfifo = (remain_txfifo > (USI_TX_MAX_FIFO - USI_FIFO_STA_TX_NUM(addr))) ? USI_TX_MAX_FIFO - USI_FIFO_STA_TX_NUM(addr) : remain_txfifo;
    2dde:	4458                	lw	a4,12(s0)
        uint32_t remain_txfifo = iic_priv->tx_total_num - iic_priv->tx_cnt;
    2de0:	8d11                	sub	a0,a0,a2
        emptyfifo = (remain_txfifo > (USI_TX_MAX_FIFO - USI_FIFO_STA_TX_NUM(addr))) ? USI_TX_MAX_FIFO - USI_FIFO_STA_TX_NUM(addr) : remain_txfifo;
    2de2:	8321                	srli	a4,a4,0x8
    2de4:	4641                	li	a2,16
    2de6:	8b7d                	andi	a4,a4,31
    2de8:	40e60733          	sub	a4,a2,a4
    2dec:	0ff57613          	andi	a2,a0,255
    2df0:	00a77963          	bgeu	a4,a0,2e02 <wj_usi_i2c_irqhandler+0xb6>
    2df4:	4458                	lw	a4,12(s0)
    2df6:	4641                	li	a2,16
    2df8:	8321                	srli	a4,a4,0x8
    2dfa:	8b7d                	andi	a4,a4,31
    2dfc:	8e19                	sub	a2,a2,a4
    2dfe:	0ff67613          	andi	a2,a2,255
            tx_data = (uint16_t)(*iic_priv->tx_buf);
    2e02:	03000713          	li	a4,48
    2e06:	02e48733          	mul	a4,s1,a4
    2e0a:	973e                	add	a4,a4,a5
        for (i = 0; i < emptyfifo; i++) {
    2e0c:	08c5e963          	bltu	a1,a2,2e9e <wj_usi_i2c_irqhandler+0x152>
    if (iic_priv->tx_cnt == iic_priv->tx_total_num) {
    2e10:	03000713          	li	a4,48
    2e14:	02e48733          	mul	a4,s1,a4
    2e18:	973e                	add	a4,a4,a5
    2e1a:	534c                	lw	a1,36(a4)
    2e1c:	4b18                	lw	a4,16(a4)
    2e1e:	00e59963          	bne	a1,a4,2e30 <wj_usi_i2c_irqhandler+0xe4>
        addr->USI_I2CM_CTRL |= (1 << 1);
    2e22:	5418                	lw	a4,40(s0)
    2e24:	00276713          	ori	a4,a4,2
    2e28:	d418                	sw	a4,40(s0)
        addr->USI_INTR_EN &= ~USI_INT_TX_EMPTY;
    2e2a:	4838                	lw	a4,80(s0)
    2e2c:	9b75                	andi	a4,a4,-3
    2e2e:	c838                	sw	a4,80(s0)
    if (intr_stat & USI_INT_I2C_STOP) {
    2e30:	6705                	lui	a4,0x1
    2e32:	8f75                	and	a4,a4,a3
    2e34:	cb0d                	beqz	a4,2e66 <wj_usi_i2c_irqhandler+0x11a>
        iic_priv->status  = IIC_STATE_SEND_DONE;
    2e36:	03000713          	li	a4,48
    2e3a:	02e48733          	mul	a4,s1,a4
    2e3e:	4595                	li	a1,5
    2e40:	973e                	add	a4,a4,a5
    2e42:	d70c                	sw	a1,40(a4)
        if (iic_priv->cb_event) {
    2e44:	4718                	lw	a4,8(a4)
        addr->USI_EN = 0;
    2e46:	00042023          	sw	zero,0(s0)
        if (iic_priv->cb_event) {
    2e4a:	cf11                	beqz	a4,2e66 <wj_usi_i2c_irqhandler+0x11a>
            iic_priv->cb_event(idx, IIC_EVENT_TRANSFER_DONE);
    2e4c:	4581                	li	a1,0
    2e4e:	8526                	mv	a0,s1
    2e50:	c432                	sw	a2,8(sp)
    2e52:	c21a                	sw	t1,4(sp)
    2e54:	c036                	sw	a3,0(sp)
    2e56:	9702                	jalr	a4
    2e58:	4622                	lw	a2,8(sp)
    2e5a:	4312                	lw	t1,4(sp)
    2e5c:	4682                	lw	a3,0(sp)
    2e5e:	200017b7          	lui	a5,0x20001
    2e62:	73478793          	addi	a5,a5,1844 # 20001734 <iic_instance>
    iic_priv->tx_cnt += emptyfifo;
    2e66:	03000713          	li	a4,48
    2e6a:	02e48733          	mul	a4,s1,a4
    if (intr_stat & USI_INT_TX_WERR) {
    2e6e:	8ac1                	andi	a3,a3,16
    iic_priv->tx_cnt += emptyfifo;
    2e70:	97ba                	add	a5,a5,a4
    2e72:	53d8                	lw	a4,36(a5)
    2e74:	963a                	add	a2,a2,a4
    2e76:	d3d0                	sw	a2,36(a5)
    if (intr_stat & USI_INT_TX_WERR) {
    2e78:	ce81                	beqz	a3,2e90 <wj_usi_i2c_irqhandler+0x144>
        iic_priv->status = IIC_STATE_ERROR;
    2e7a:	471d                	li	a4,7
    2e7c:	d798                	sw	a4,40(a5)
        if (iic_priv->cb_event) {
    2e7e:	479c                	lw	a5,8(a5)
        addr->USI_EN = 0;
    2e80:	00042023          	sw	zero,0(s0)
        if (iic_priv->cb_event) {
    2e84:	c791                	beqz	a5,2e90 <wj_usi_i2c_irqhandler+0x144>
            iic_priv->cb_event(idx, IIC_EVENT_BUS_ERROR);
    2e86:	459d                	li	a1,7
    2e88:	8526                	mv	a0,s1
    2e8a:	c01a                	sw	t1,0(sp)
    2e8c:	9782                	jalr	a5
    2e8e:	4302                	lw	t1,0(sp)
            addr->USI_INTR_CLR = intr_state;
    2e90:	06642023          	sw	t1,96(s0)
}
    2e94:	40d2                	lw	ra,20(sp)
    2e96:	4442                	lw	s0,16(sp)
    2e98:	44b2                	lw	s1,12(sp)
    2e9a:	0161                	addi	sp,sp,24
    2e9c:	8082                	ret
            tx_data = (uint16_t)(*iic_priv->tx_buf);
    2e9e:	4f08                	lw	a0,24(a4)
        for (i = 0; i < emptyfifo; i++) {
    2ea0:	0585                	addi	a1,a1,1
            addr->USI_TX_RX_FIFO = tx_data;
    2ea2:	00054283          	lbu	t0,0(a0)
            iic_priv->tx_buf++;
    2ea6:	0505                	addi	a0,a0,1
            addr->USI_TX_RX_FIFO = tx_data;
    2ea8:	00542423          	sw	t0,8(s0)
            iic_priv->tx_buf++;
    2eac:	cf08                	sw	a0,24(a4)
        for (i = 0; i < emptyfifo; i++) {
    2eae:	bfb9                	j	2e0c <wj_usi_i2c_irqhandler+0xc0>
    if (intr_stat & USI_INT_RX_THOLD) {
    2eb0:	0206f613          	andi	a2,a3,32
    2eb4:	ca25                	beqz	a2,2f24 <wj_usi_i2c_irqhandler+0x1d8>
        addr->USI_INTR_CLR = USI_INT_RX_THOLD;
    2eb6:	02000613          	li	a2,32
    2eba:	d030                	sw	a2,96(s0)
        uint32_t rx_num = USI_FIFO_STA_RX_NUM(addr);
    2ebc:	4450                	lw	a2,12(s0)
    2ebe:	8241                	srli	a2,a2,0x10
    2ec0:	01f67513          	andi	a0,a2,31
        for (i = 0; i < rx_num; i++) {
    2ec4:	4601                	li	a2,0
    2ec6:	0ca66e63          	bltu	a2,a0,2fa2 <wj_usi_i2c_irqhandler+0x256>
        uint8_t rxfifo = iic_priv->rx_clk > (USI_RX_MAX_FIFO - tx_num) ? (USI_RX_MAX_FIFO - tx_num) : 1;
    2eca:	03000613          	li	a2,48
    2ece:	02c48633          	mul	a2,s1,a2
        uint32_t tx_num = USI_FIFO_STA_TX_NUM(addr);
    2ed2:	4458                	lw	a4,12(s0)
        uint8_t rxfifo = iic_priv->rx_clk > (USI_RX_MAX_FIFO - tx_num) ? (USI_RX_MAX_FIFO - tx_num) : 1;
    2ed4:	4585                	li	a1,1
        uint32_t tx_num = USI_FIFO_STA_TX_NUM(addr);
    2ed6:	8321                	srli	a4,a4,0x8
    2ed8:	8b7d                	andi	a4,a4,31
        uint8_t rxfifo = iic_priv->rx_clk > (USI_RX_MAX_FIFO - tx_num) ? (USI_RX_MAX_FIFO - tx_num) : 1;
    2eda:	963e                	add	a2,a2,a5
    2edc:	5208                	lw	a0,32(a2)
    2ede:	4641                	li	a2,16
    2ee0:	8e19                	sub	a2,a2,a4
    2ee2:	00a67663          	bgeu	a2,a0,2eee <wj_usi_i2c_irqhandler+0x1a2>
    2ee6:	45c1                	li	a1,16
    2ee8:	8d99                	sub	a1,a1,a4
    2eea:	0ff5f593          	andi	a1,a1,255
        if (iic_priv->rx_clk == 0) {
    2eee:	03000713          	li	a4,48
    2ef2:	02e48733          	mul	a4,s1,a4
    2ef6:	973e                	add	a4,a4,a5
    2ef8:	5310                	lw	a2,32(a4)
    2efa:	ce61                	beqz	a2,2fd2 <wj_usi_i2c_irqhandler+0x286>
        for (i = 0; i < rxfifo; i++) {
    2efc:	4601                	li	a2,0
            addr->USI_TX_RX_FIFO = 0x100;
    2efe:	10000313          	li	t1,256
        for (i = 0; i < rxfifo; i++) {
    2f02:	0ab61f63          	bne	a2,a1,2fc0 <wj_usi_i2c_irqhandler+0x274>
        wj_usi_set_rxfifo_th(addr, rxfifo);
    2f06:	8522                	mv	a0,s0
    2f08:	c236                	sw	a3,4(sp)
    2f0a:	c02e                	sw	a1,0(sp)
    2f0c:	3351                	jal	2c90 <wj_usi_set_rxfifo_th>
        if (rxfifo == 0) {
    2f0e:	4582                	lw	a1,0(sp)
    2f10:	200017b7          	lui	a5,0x20001
    2f14:	4692                	lw	a3,4(sp)
    2f16:	73478793          	addi	a5,a5,1844 # 20001734 <iic_instance>
    2f1a:	e589                	bnez	a1,2f24 <wj_usi_i2c_irqhandler+0x1d8>
            addr->USI_INTR_EN |= USI_INT_I2C_STOP;
    2f1c:	4838                	lw	a4,80(s0)
    2f1e:	6605                	lui	a2,0x1
    2f20:	8f51                	or	a4,a4,a2
    2f22:	c838                	sw	a4,80(s0)
    if (iic_priv->rx_cnt == iic_priv->rx_total_num) {
    2f24:	03000713          	li	a4,48
    2f28:	02e48733          	mul	a4,s1,a4
    2f2c:	973e                	add	a4,a4,a5
    2f2e:	4f50                	lw	a2,28(a4)
    2f30:	4758                	lw	a4,12(a4)
    2f32:	00e61a63          	bne	a2,a4,2f46 <wj_usi_i2c_irqhandler+0x1fa>
        addr->USI_I2CM_CTRL |= (1 << 1);
    2f36:	5418                	lw	a4,40(s0)
    2f38:	00276713          	ori	a4,a4,2
    2f3c:	d418                	sw	a4,40(s0)
        addr->USI_INTR_EN &= ~USI_INT_RX_THOLD;
    2f3e:	4838                	lw	a4,80(s0)
    2f40:	fdf77713          	andi	a4,a4,-33
    2f44:	c838                	sw	a4,80(s0)
    if ((intr_stat & USI_INT_RX_WERR) || (intr_stat & USI_INT_RX_RERR)) {
    2f46:	3006f713          	andi	a4,a3,768
    2f4a:	c70d                	beqz	a4,2f74 <wj_usi_i2c_irqhandler+0x228>
        iic_priv->status = IIC_STATE_ERROR;
    2f4c:	03000713          	li	a4,48
    2f50:	02e48733          	mul	a4,s1,a4
    2f54:	461d                	li	a2,7
    2f56:	973e                	add	a4,a4,a5
    2f58:	d710                	sw	a2,40(a4)
        if (iic_priv->cb_event) {
    2f5a:	4718                	lw	a4,8(a4)
        addr->USI_EN = 0;
    2f5c:	00042023          	sw	zero,0(s0)
        if (iic_priv->cb_event) {
    2f60:	cb11                	beqz	a4,2f74 <wj_usi_i2c_irqhandler+0x228>
            iic_priv->cb_event(idx, IIC_EVENT_BUS_ERROR);
    2f62:	459d                	li	a1,7
    2f64:	8526                	mv	a0,s1
    2f66:	c036                	sw	a3,0(sp)
    2f68:	9702                	jalr	a4
    2f6a:	4682                	lw	a3,0(sp)
    2f6c:	200017b7          	lui	a5,0x20001
    2f70:	73478793          	addi	a5,a5,1844 # 20001734 <iic_instance>
    if (intr_stat & USI_INT_I2C_STOP) {
    2f74:	6705                	lui	a4,0x1
    2f76:	8ef9                	and	a3,a3,a4
    2f78:	de91                	beqz	a3,2e94 <wj_usi_i2c_irqhandler+0x148>
        addr->USI_INTR_CLR = USI_INT_I2C_STOP;
    2f7a:	d038                	sw	a4,96(s0)
        iic_priv->status  = IIC_STATE_RECV_DONE;
    2f7c:	03000713          	li	a4,48
    2f80:	02e48733          	mul	a4,s1,a4
            iic_priv->cb_event(idx, IIC_EVENT_TRANSFER_DONE);
    2f84:	4581                	li	a1,0
        iic_priv->status  = IIC_STATE_RECV_DONE;
    2f86:	97ba                	add	a5,a5,a4
    2f88:	4719                	li	a4,6
    2f8a:	d798                	sw	a4,40(a5)
        if (iic_priv->cb_event) {
    2f8c:	479c                	lw	a5,8(a5)
        addr->USI_EN = 0;
    2f8e:	00042023          	sw	zero,0(s0)
        if (iic_priv->cb_event) {
    2f92:	f00781e3          	beqz	a5,2e94 <wj_usi_i2c_irqhandler+0x148>
}
    2f96:	4442                	lw	s0,16(sp)
    2f98:	40d2                	lw	ra,20(sp)
                iic_priv->cb_event(idx, IIC_EVENT_ARBITRATION_LOST);
    2f9a:	8526                	mv	a0,s1
}
    2f9c:	44b2                	lw	s1,12(sp)
    2f9e:	0161                	addi	sp,sp,24
                iic_priv->cb_event(idx, IIC_EVENT_ARBITRATION_LOST);
    2fa0:	8782                	jr	a5
            *iic_priv->rx_buf = addr->USI_TX_RX_FIFO;
    2fa2:	00842303          	lw	t1,8(s0)
    2fa6:	4b4c                	lw	a1,20(a4)
        for (i = 0; i < rx_num; i++) {
    2fa8:	0605                	addi	a2,a2,1
    2faa:	0ff67613          	andi	a2,a2,255
            *iic_priv->rx_buf = addr->USI_TX_RX_FIFO;
    2fae:	00658023          	sb	t1,0(a1) # 6000 <__ctor_end__+0x6e8>
            iic_priv->rx_buf++;
    2fb2:	4b4c                	lw	a1,20(a4)
    2fb4:	0585                	addi	a1,a1,1
    2fb6:	cb4c                	sw	a1,20(a4)
            iic_priv->rx_cnt++;;
    2fb8:	4f4c                	lw	a1,28(a4)
    2fba:	0585                	addi	a1,a1,1
    2fbc:	cf4c                	sw	a1,28(a4)
        for (i = 0; i < rx_num; i++) {
    2fbe:	b721                	j	2ec6 <wj_usi_i2c_irqhandler+0x17a>
            addr->USI_TX_RX_FIFO = 0x100;
    2fc0:	00642423          	sw	t1,8(s0)
            iic_priv->rx_clk--;
    2fc4:	5308                	lw	a0,32(a4)
        for (i = 0; i < rxfifo; i++) {
    2fc6:	0605                	addi	a2,a2,1
    2fc8:	0ff67613          	andi	a2,a2,255
            iic_priv->rx_clk--;
    2fcc:	157d                	addi	a0,a0,-1
    2fce:	d308                	sw	a0,32(a4)
        for (i = 0; i < rxfifo; i++) {
    2fd0:	bf0d                	j	2f02 <wj_usi_i2c_irqhandler+0x1b6>
            rxfifo = 0;
    2fd2:	4581                	li	a1,0
    2fd4:	bf0d                	j	2f06 <wj_usi_i2c_irqhandler+0x1ba>

00002fd6 <wj_spi_ss_control.isra.0>:
/**
  \brief control ss line depend on controlled Output mode.
*/
static int32_t wj_spi_ss_control(wj_usi_spi_priv_t *spi_priv, spi_ss_stat_e stat)
{
    if (spi_priv->ss_mode == SPI_SS_MASTER_HW_OUTPUT) {
    2fd6:	4789                	li	a5,2
    2fd8:	02f51463          	bne	a0,a5,3000 <wj_spi_ss_control.isra.0+0x2a>
static int32_t wj_spi_ss_control(wj_usi_spi_priv_t *spi_priv, spi_ss_stat_e stat)
    2fdc:	1151                	addi	sp,sp,-12
    2fde:	c406                	sw	ra,8(sp)
        if (stat == SPI_SS_INACTIVE) {
    2fe0:	e991                	bnez	a1,2ff4 <wj_spi_ss_control.isra.0+0x1e>
            csi_gpio_pin_write(pgpio_pin_handle, true);
    2fe2:	4585                	li	a1,1
        } else if (stat == SPI_SS_ACTIVE) {
            csi_gpio_pin_write(pgpio_pin_handle, false);
    2fe4:	00c1a503          	lw	a0,12(gp) # 200004f4 <pgpio_pin_handle>
    2fe8:	74e000ef          	jal	ra,3736 <csi_gpio_pin_write>
        } else {
            return -1;
        }
    }

    return 0;
    2fec:	4501                	li	a0,0
}
    2fee:	40a2                	lw	ra,8(sp)
    2ff0:	0131                	addi	sp,sp,12
    2ff2:	8082                	ret
        } else if (stat == SPI_SS_ACTIVE) {
    2ff4:	4785                	li	a5,1
            return -1;
    2ff6:	557d                	li	a0,-1
        } else if (stat == SPI_SS_ACTIVE) {
    2ff8:	fef59be3          	bne	a1,a5,2fee <wj_spi_ss_control.isra.0+0x18>
            csi_gpio_pin_write(pgpio_pin_handle, false);
    2ffc:	4581                	li	a1,0
    2ffe:	b7dd                	j	2fe4 <wj_spi_ss_control.isra.0+0xe>
    return 0;
    3000:	4501                	li	a0,0
}
    3002:	8082                	ret

00003004 <wj_usi_spi_irqhandler>:
  \brief       handler the interrupt.
  \param[in]   spi      Pointer to \ref SPI_RESOURCES
*/
void wj_usi_spi_irqhandler(int32_t idx)
{
    wj_usi_spi_priv_t *spi_priv = &spi_instance[idx];
    3004:	04c00793          	li	a5,76
    3008:	02f507b3          	mul	a5,a0,a5
{
    300c:	1101                	addi	sp,sp,-32
    300e:	cc22                	sw	s0,24(sp)
    wj_usi_spi_priv_t *spi_priv = &spi_instance[idx];
    3010:	20001437          	lui	s0,0x20001
    3014:	7c440313          	addi	t1,s0,1988 # 200017c4 <spi_instance>
{
    3018:	ca26                	sw	s1,20(sp)
    301a:	ce06                	sw	ra,28(sp)
    301c:	872a                	mv	a4,a0
    301e:	7c440413          	addi	s0,s0,1988
    wj_usi_spi_priv_t *spi_priv = &spi_instance[idx];
    3022:	933e                	add	t1,t1,a5
    wj_usi_reg_t *addr = (wj_usi_reg_t *)(spi_priv->base);
    3024:	00032483          	lw	s1,0(t1)

    uint32_t intr_state = addr->USI_INTR_STA & 0x3ffff;
    3028:	48f0                	lw	a2,84(s1)
    302a:	00e61793          	slli	a5,a2,0xe
    302e:	83b9                	srli	a5,a5,0xe
    3030:	c03e                	sw	a5,0(sp)

    /* deal with receive FIFO full interrupt */
    if (intr_state & USI_INT_SPI_STOP) {
    3032:	000207b7          	lui	a5,0x20
    3036:	8ff1                	and	a5,a5,a2
    3038:	c7c9                	beqz	a5,30c2 <wj_usi_spi_irqhandler+0xbe>
    uint8_t rxnum = USI_FIFO_STA_RX_NUM(addr);
    303a:	44dc                	lw	a5,12(s1)
    uint32_t length = spi_priv->recv_num;
    303c:	01432503          	lw	a0,20(t1)
    uint8_t *pbuffer = spi_priv->recv_buf;
    3040:	01c32583          	lw	a1,28(t1)
    uint8_t rxnum = USI_FIFO_STA_RX_NUM(addr);
    3044:	83c1                	srli	a5,a5,0x10
    uint32_t rxdata_num = (rxnum > length) ? length : rxnum;
    3046:	8bfd                	andi	a5,a5,31
    3048:	00f57363          	bgeu	a0,a5,304e <wj_usi_spi_irqhandler+0x4a>
    304c:	87aa                	mv	a5,a0
    for (i = 0; i < rxdata_num; i++) {
    304e:	00f582b3          	add	t0,a1,a5
    3052:	0a559d63          	bne	a1,t0,310c <wj_usi_spi_irqhandler+0x108>
    length -= rxdata_num;
    3056:	40f502b3          	sub	t0,a0,a5
    if (length <= 0) {
    305a:	0af51f63          	bne	a0,a5,3118 <wj_usi_spi_irqhandler+0x114>
        addr->USI_INTR_EN &= ~USI_INT_SPI_STOP;
    305e:	48bc                	lw	a5,80(s1)
    3060:	7581                	lui	a1,0xfffe0
    3062:	15fd                	addi	a1,a1,-1
    3064:	8fed                	and	a5,a5,a1
    3066:	c8bc                	sw	a5,80(s1)
        spi_priv->status.busy = 0U;
    3068:	04c00793          	li	a5,76
    306c:	02f707b3          	mul	a5,a4,a5
    3070:	c832                	sw	a2,16(sp)
    3072:	c63a                	sw	a4,12(sp)
        wj_spi_ss_control(spi_priv, SPI_SS_INACTIVE);
    3074:	c21a                	sw	t1,4(sp)
        spi_priv->status.busy = 0U;
    3076:	97a2                	add	a5,a5,s0
    3078:	0387c583          	lbu	a1,56(a5) # 20038 <__min_heap_size+0x38>
        spi_priv->recv_num = 0;
    307c:	c43e                	sw	a5,8(sp)
        spi_priv->status.busy = 0U;
    307e:	99f9                	andi	a1,a1,-2
    3080:	02b78c23          	sb	a1,56(a5)
        addr->USI_EN = 0x0;
    3084:	0004a023          	sw	zero,0(s1) # 80000000 <__heap_end+0x5ffd0000>
        addr->USI_EN = 0xf;
    3088:	45bd                	li	a1,15
    308a:	c08c                	sw	a1,0(s1)
        addr->USI_EN = 0x0;
    308c:	0004a023          	sw	zero,0(s1)
        spi_priv->recv_num = 0;
    3090:	0007aa23          	sw	zero,20(a5)
        wj_spi_ss_control(spi_priv, SPI_SS_INACTIVE);
    3094:	03434503          	lbu	a0,52(t1)
    3098:	4581                	li	a1,0
    309a:	3f35                	jal	2fd6 <wj_spi_ss_control.isra.0>
        if (spi_priv->cb_event) {
    309c:	47a2                	lw	a5,8(sp)
    309e:	4312                	lw	t1,4(sp)
    30a0:	4732                	lw	a4,12(sp)
    30a2:	00c7a383          	lw	t2,12(a5)
    30a6:	4642                	lw	a2,16(sp)
    30a8:	00038a63          	beqz	t2,30bc <wj_usi_spi_irqhandler+0xb8>
            spi_priv->cb_event(spi_priv->idx, SPI_EVENT_RX_COMPLETE);
    30ac:	43a8                	lw	a0,64(a5)
    30ae:	4589                	li	a1,2
    30b0:	c41a                	sw	t1,8(sp)
    30b2:	c232                	sw	a2,4(sp)
    30b4:	9382                	jalr	t2
            return;
    30b6:	4612                	lw	a2,4(sp)
    30b8:	4322                	lw	t1,8(sp)
    30ba:	4732                	lw	a4,12(sp)
        wj_spi_intr_rx_full(spi_priv);
        addr->USI_INTR_CLR = USI_INT_SPI_STOP;
    30bc:	000207b7          	lui	a5,0x20
    30c0:	d0bc                	sw	a5,96(s1)
    }

    /* deal with transmit FIFO empty interrupt */
    if (intr_state & USI_INT_TX_EMPTY) {
    30c2:	8a09                	andi	a2,a2,2
    30c4:	10060363          	beqz	a2,31ca <wj_usi_spi_irqhandler+0x1c6>
    wj_usi_reg_t *addr = (wj_usi_reg_t *)(spi_priv->base);
    30c8:	04c00793          	li	a5,76
    30cc:	02f707b3          	mul	a5,a4,a5
    30d0:	97a2                	add	a5,a5,s0
    if (spi_priv->mode == WJENUM_SPI_TXRX) {
    30d2:	5b8c                	lw	a1,48(a5)
    wj_usi_reg_t *addr = (wj_usi_reg_t *)(spi_priv->base);
    30d4:	4390                	lw	a2,0(a5)
    if (spi_priv->mode == WJENUM_SPI_TXRX) {
    30d6:	c1d9                	beqz	a1,315c <wj_usi_spi_irqhandler+0x158>
        if (spi_priv->clk_num >= USI_TX_MAX_FIFO) {
    30d8:	578c                	lw	a1,40(a5)
    30da:	47c1                	li	a5,16
    30dc:	00b7f363          	bgeu	a5,a1,30e2 <wj_usi_spi_irqhandler+0xde>
    30e0:	45c1                	li	a1,16
    30e2:	04c00793          	li	a5,76
    30e6:	02f707b3          	mul	a5,a4,a5
    30ea:	4281                	li	t0,0
    30ec:	97a2                	add	a5,a5,s0
    30ee:	d3cc                	sw	a1,36(a5)
        for (i = 0; i < spi_priv->transfer_num; i++) {
    30f0:	08558563          	beq	a1,t0,317a <wj_usi_spi_irqhandler+0x176>
            addr->USI_TX_RX_FIFO = *spi_priv->send_buf;
    30f4:	4f88                	lw	a0,24(a5)
        for (i = 0; i < spi_priv->transfer_num; i++) {
    30f6:	0285                	addi	t0,t0,1
            addr->USI_TX_RX_FIFO = *spi_priv->send_buf;
    30f8:	00054383          	lbu	t2,0(a0)
            spi_priv->send_buf++;
    30fc:	0505                	addi	a0,a0,1
            addr->USI_TX_RX_FIFO = *spi_priv->send_buf;
    30fe:	00762423          	sw	t2,8(a2) # 1008 <__divdf3+0x15e>
            spi_priv->send_buf++;
    3102:	cf88                	sw	a0,24(a5)
            spi_priv->send_num--;
    3104:	4b88                	lw	a0,16(a5)
    3106:	157d                	addi	a0,a0,-1
    3108:	cb88                	sw	a0,16(a5)
        for (i = 0; i < spi_priv->transfer_num; i++) {
    310a:	b7dd                	j	30f0 <wj_usi_spi_irqhandler+0xec>
        *pbuffer = addr->USI_TX_RX_FIFO;
    310c:	0084a383          	lw	t2,8(s1)
        pbuffer++;
    3110:	0585                	addi	a1,a1,1
        *pbuffer = addr->USI_TX_RX_FIFO;
    3112:	fe758fa3          	sb	t2,-1(a1) # fffdffff <__heap_end+0xdffaffff>
    for (i = 0; i < rxdata_num; i++) {
    3116:	bf35                	j	3052 <wj_usi_spi_irqhandler+0x4e>
    wj_usi_reg_t *addr = (wj_usi_reg_t *)(spi_priv->base);
    3118:	04c00793          	li	a5,76
    311c:	02f707b3          	mul	a5,a4,a5
    3120:	97a2                	add	a5,a5,s0
    3122:	4388                	lw	a0,0(a5)
            addr->USI_SPI_CTRL &= ~WJ_USI_SPI_CTRL_TMODE;
    3124:	04452383          	lw	t2,68(a0)
    3128:	fcf3f393          	andi	t2,t2,-49
    312c:	04752223          	sw	t2,68(a0)
            addr->USI_SPI_CTRL |= WJ_USI_SPI_CTRL_TMODE_RX;
    3130:	04452383          	lw	t2,68(a0)
    3134:	0203e393          	ori	t2,t2,32
    3138:	04752223          	sw	t2,68(a0)
    spi_priv->mode = mode;
    313c:	4509                	li	a0,2
    313e:	db88                	sw	a0,48(a5)
        spi_priv->recv_buf = pbuffer;
    3140:	cfcc                	sw	a1,28(a5)
        spi_priv->recv_num = length;
    3142:	0057aa23          	sw	t0,20(a5) # 20014 <__min_heap_size+0x14>
    3146:	bf9d                	j	30bc <wj_usi_spi_irqhandler+0xb8>
            *spi_priv->recv_buf = addr->USI_TX_RX_FIFO;
    3148:	4608                	lw	a0,8(a2)
    314a:	4fcc                	lw	a1,28(a5)
    314c:	00a58023          	sb	a0,0(a1)
            spi_priv->recv_buf++;
    3150:	4fcc                	lw	a1,28(a5)
    3152:	0585                	addi	a1,a1,1
    3154:	cfcc                	sw	a1,28(a5)
            spi_priv->transfer_num--;
    3156:	53cc                	lw	a1,36(a5)
    3158:	15fd                	addi	a1,a1,-1
    315a:	d3cc                	sw	a1,36(a5)
        while (spi_priv->transfer_num) {
    315c:	53c8                	lw	a0,36(a5)
    315e:	f56d                	bnez	a0,3148 <wj_usi_spi_irqhandler+0x144>
        if (spi_priv->clk_num >= USI_TX_MAX_FIFO) {
    3160:	578c                	lw	a1,40(a5)
    3162:	47c1                	li	a5,16
    3164:	00b7f363          	bgeu	a5,a1,316a <wj_usi_spi_irqhandler+0x166>
    3168:	45c1                	li	a1,16
    316a:	04c00793          	li	a5,76
    316e:	02f707b3          	mul	a5,a4,a5
    3172:	97a2                	add	a5,a5,s0
    3174:	d3cc                	sw	a1,36(a5)
        for (i = 0; i < spi_priv->transfer_num; i++) {
    3176:	06b51163          	bne	a0,a1,31d8 <wj_usi_spi_irqhandler+0x1d4>
    if (spi_priv->clk_num == 0) {
    317a:	04c00793          	li	a5,76
    317e:	02f707b3          	mul	a5,a4,a5
    3182:	97a2                	add	a5,a5,s0
    3184:	578c                	lw	a1,40(a5)
    3186:	eda5                	bnez	a1,31fe <wj_usi_spi_irqhandler+0x1fa>
        addr->USI_INTR_EN &= ~USI_INT_TX_EMPTY;
    3188:	4a2c                	lw	a1,80(a2)
    318a:	c63a                	sw	a4,12(sp)
    318c:	c432                	sw	a2,8(sp)
    318e:	99f5                	andi	a1,a1,-3
    3190:	ca2c                	sw	a1,80(a2)
        spi_priv->status.busy = 0U;
    3192:	0387c583          	lbu	a1,56(a5)
        spi_priv->send_num = 0;
    3196:	0007a823          	sw	zero,16(a5)
    319a:	c23e                	sw	a5,4(sp)
        spi_priv->status.busy = 0U;
    319c:	99f9                	andi	a1,a1,-2
    319e:	02b78c23          	sb	a1,56(a5)
        wj_spi_ss_control(spi_priv, SPI_SS_INACTIVE);
    31a2:	03434503          	lbu	a0,52(t1)
    31a6:	4581                	li	a1,0
    31a8:	353d                	jal	2fd6 <wj_spi_ss_control.isra.0>
        addr->USI_EN = 0x0;
    31aa:	4622                	lw	a2,8(sp)
        if (spi_priv->mode == WJENUM_SPI_TXRX) {
    31ac:	4792                	lw	a5,4(sp)
        addr->USI_EN = 0xf;
    31ae:	45bd                	li	a1,15
        addr->USI_EN = 0x0;
    31b0:	00062023          	sw	zero,0(a2)
        addr->USI_EN = 0xf;
    31b4:	c20c                	sw	a1,0(a2)
        if (spi_priv->mode == WJENUM_SPI_TXRX) {
    31b6:	5b8c                	lw	a1,48(a5)
    31b8:	47d0                	lw	a2,12(a5)
    31ba:	4732                	lw	a4,12(sp)
    31bc:	ed95                	bnez	a1,31f8 <wj_usi_spi_irqhandler+0x1f4>
            if (spi_priv->cb_event) {
    31be:	04060063          	beqz	a2,31fe <wj_usi_spi_irqhandler+0x1fa>
                spi_priv->cb_event(spi_priv->idx, SPI_EVENT_TX_COMPLETE);
    31c2:	43a8                	lw	a0,64(a5)
    31c4:	9602                	jalr	a2
        wj_spi_intr_tx_empty(spi_priv);
        addr->USI_INTR_CLR = USI_INT_TX_EMPTY;
    31c6:	4789                	li	a5,2
    31c8:	d0bc                	sw	a5,96(s1)
    }

    addr->USI_INTR_CLR = intr_state;
    31ca:	4782                	lw	a5,0(sp)
}
    31cc:	40f2                	lw	ra,28(sp)
    31ce:	4462                	lw	s0,24(sp)
    addr->USI_INTR_CLR = intr_state;
    31d0:	d0bc                	sw	a5,96(s1)
}
    31d2:	44d2                	lw	s1,20(sp)
    31d4:	6105                	addi	sp,sp,32
    31d6:	8082                	ret
            addr->USI_TX_RX_FIFO = *spi_priv->send_buf;
    31d8:	0187a283          	lw	t0,24(a5)
        for (i = 0; i < spi_priv->transfer_num; i++) {
    31dc:	0505                	addi	a0,a0,1
            addr->USI_TX_RX_FIFO = *spi_priv->send_buf;
    31de:	0002c383          	lbu	t2,0(t0) # 233e <memset+0x92>
            spi_priv->send_buf++;
    31e2:	0285                	addi	t0,t0,1
            addr->USI_TX_RX_FIFO = *spi_priv->send_buf;
    31e4:	00762423          	sw	t2,8(a2)
            spi_priv->send_buf++;
    31e8:	0057ac23          	sw	t0,24(a5)
            spi_priv->send_num--;
    31ec:	0107a283          	lw	t0,16(a5)
    31f0:	12fd                	addi	t0,t0,-1
    31f2:	0057a823          	sw	t0,16(a5)
        for (i = 0; i < spi_priv->transfer_num; i++) {
    31f6:	b741                	j	3176 <wj_usi_spi_irqhandler+0x172>
            if (spi_priv->cb_event) {
    31f8:	c219                	beqz	a2,31fe <wj_usi_spi_irqhandler+0x1fa>
                spi_priv->cb_event(spi_priv->idx, SPI_EVENT_TX_COMPLETE);
    31fa:	4585                	li	a1,1
    31fc:	b7d9                	j	31c2 <wj_usi_spi_irqhandler+0x1be>
    spi_priv->clk_num -= spi_priv->transfer_num;
    31fe:	04c00513          	li	a0,76
    3202:	02a70733          	mul	a4,a4,a0
    3206:	943a                	add	s0,s0,a4
    3208:	541c                	lw	a5,40(s0)
    320a:	5058                	lw	a4,36(s0)
    320c:	8f99                	sub	a5,a5,a4
    320e:	d41c                	sw	a5,40(s0)
    3210:	bf5d                	j	31c6 <wj_usi_spi_irqhandler+0x1c2>

00003212 <ck_usart_intr_recv_data>:
  \brief        interrupt service function for receiver data available.
  \param[in]   usart_priv usart private to operate.
*/
static void ck_usart_intr_recv_data(wj_usi_usart_priv_t *usart_priv)
{
    if ((usart_priv->rx_total_num == 0) || (usart_priv->rx_buf == NULL)) {
    3212:	4558                	lw	a4,12(a0)
    3214:	c319                	beqz	a4,321a <ck_usart_intr_recv_data+0x8>
    3216:	495c                	lw	a5,20(a0)
    3218:	e789                	bnez	a5,3222 <ck_usart_intr_recv_data+0x10>
        usart_priv->cb_event(usart_priv->idx, USART_EVENT_RECEIVED);
    321a:	451c                	lw	a5,8(a0)
    321c:	45b9                	li	a1,14
        usart_priv->rx_buf = NULL;
        usart_priv->rx_busy = 0;
        usart_priv->rx_total_num = 0;

        if (usart_priv->cb_event) {
            usart_priv->cb_event(usart_priv->idx, USART_EVENT_RECEIVE_COMPLETE);
    321e:	5948                	lw	a0,52(a0)
    3220:	8782                	jr	a5
    wj_usi_reg_t *addr = (wj_usi_reg_t *)(usart_priv->base);
    3222:	4110                	lw	a2,0(a0)
    uint32_t rxfifo_num = (addr->USI_FIFO_STA >> 16) & 0xf;
    3224:	465c                	lw	a5,12(a2)
    3226:	83c1                	srli	a5,a5,0x10
    3228:	8bbd                	andi	a5,a5,15
    uint32_t rxdata_num = (rxfifo_num > usart_priv->rx_total_num) ? usart_priv->rx_total_num : rxfifo_num;
    322a:	00f77363          	bgeu	a4,a5,3230 <ck_usart_intr_recv_data+0x1e>
    322e:	87ba                	mv	a5,a4
    for (i = 0; i < rxdata_num; i++) {
    3230:	4701                	li	a4,0
    3232:	02f71363          	bne	a4,a5,3258 <ck_usart_intr_recv_data+0x46>
    if (usart_priv->rx_cnt >= usart_priv->rx_total_num) {
    3236:	4d58                	lw	a4,28(a0)
    3238:	455c                	lw	a5,12(a0)
    323a:	02f76b63          	bltu	a4,a5,3270 <ck_usart_intr_recv_data+0x5e>
        usart_priv->last_rx_num = usart_priv->rx_total_num;
    323e:	d91c                	sw	a5,48(a0)
        if (usart_priv->cb_event) {
    3240:	451c                	lw	a5,8(a0)
        usart_priv->rx_cnt = 0;
    3242:	00052e23          	sw	zero,28(a0)
        usart_priv->rx_buf = NULL;
    3246:	00052a23          	sw	zero,20(a0)
        usart_priv->rx_busy = 0;
    324a:	02052423          	sw	zero,40(a0)
        usart_priv->rx_total_num = 0;
    324e:	00052623          	sw	zero,12(a0)
        if (usart_priv->cb_event) {
    3252:	cf99                	beqz	a5,3270 <ck_usart_intr_recv_data+0x5e>
            usart_priv->cb_event(usart_priv->idx, USART_EVENT_RECEIVE_COMPLETE);
    3254:	4585                	li	a1,1
    3256:	b7e1                	j	321e <ck_usart_intr_recv_data+0xc>
        *((uint8_t *)usart_priv->rx_buf) = addr->USI_TX_RX_FIFO;;
    3258:	460c                	lw	a1,8(a2)
    325a:	4954                	lw	a3,20(a0)
    for (i = 0; i < rxdata_num; i++) {
    325c:	0705                	addi	a4,a4,1
        *((uint8_t *)usart_priv->rx_buf) = addr->USI_TX_RX_FIFO;;
    325e:	00b68023          	sb	a1,0(a3)
        usart_priv->rx_cnt++;
    3262:	4d54                	lw	a3,28(a0)
    3264:	0685                	addi	a3,a3,1
    3266:	cd54                	sw	a3,28(a0)
        usart_priv->rx_buf++;
    3268:	4954                	lw	a3,20(a0)
    326a:	0685                	addi	a3,a3,1
    326c:	c954                	sw	a3,20(a0)
    for (i = 0; i < rxdata_num; i++) {
    326e:	b7d1                	j	3232 <ck_usart_intr_recv_data+0x20>
        }
    }
}
    3270:	8082                	ret

00003272 <drv_usi_usart_config_baudrate>:
{
    3272:	1151                	addi	sp,sp,-12
    3274:	c222                	sw	s0,4(sp)
    wj_usi_reg_t *addr = (wj_usi_reg_t *)(usart_priv->base);
    3276:	4100                	lw	s0,0(a0)
    uint32_t divisor = ((drv_get_usi_freq(usart_priv->idx)  * 10) / baudrate) >> 4;
    3278:	5948                	lw	a0,52(a0)
{
    327a:	c026                	sw	s1,0(sp)
    327c:	c406                	sw	ra,8(sp)
    addr->USI_EN = 0x0;
    327e:	00042023          	sw	zero,0(s0)
{
    3282:	84ae                	mv	s1,a1
    uint32_t divisor = ((drv_get_usi_freq(usart_priv->idx)  * 10) / baudrate) >> 4;
    3284:	734000ef          	jal	ra,39b8 <drv_get_usi_freq>
    3288:	4729                	li	a4,10
    328a:	02e50533          	mul	a0,a0,a4
    328e:	029555b3          	divu	a1,a0,s1
    3292:	8191                	srli	a1,a1,0x4
        divisor = (divisor / 10);
    3294:	02e5d7b3          	divu	a5,a1,a4
    if ((divisor % 10) >= 5) {
    3298:	02e5f5b3          	remu	a1,a1,a4
    329c:	4711                	li	a4,4
    329e:	00b76363          	bltu	a4,a1,32a4 <drv_usi_usart_config_baudrate+0x32>
        divisor = divisor / 10 - 1;
    32a2:	17fd                	addi	a5,a5,-1
    addr->USI_CLK_DIV0 = divisor;
    32a4:	c81c                	sw	a5,16(s0)
    addr->USI_EN = 0xf;
    32a6:	47bd                	li	a5,15
}
    32a8:	40a2                	lw	ra,8(sp)
    addr->USI_EN = 0xf;
    32aa:	c01c                	sw	a5,0(s0)
}
    32ac:	4412                	lw	s0,4(sp)
    32ae:	4482                	lw	s1,0(sp)
    32b0:	4501                	li	a0,0
    32b2:	0131                	addi	sp,sp,12
    32b4:	8082                	ret

000032b6 <drv_usi_usart_config_mode>:
    USART_NULL_PARAM_CHK(handle);
    32b6:	cd11                	beqz	a0,32d2 <drv_usi_usart_config_mode+0x1c>
    wj_usi_reg_t *addr = (wj_usi_reg_t *)(usart_priv->base);
    32b8:	411c                	lw	a5,0(a0)
        addr->USI_EN = 0xf;
    32ba:	473d                	li	a4,15
    addr->USI_EN = 0x0;
    32bc:	0007a023          	sw	zero,0(a5)
        addr->USI_EN = 0xf;
    32c0:	c398                	sw	a4,0(a5)
    if (mode == USART_MODE_ASYNCHRONOUS) {
    32c2:	e199                	bnez	a1,32c8 <drv_usi_usart_config_mode+0x12>
        return 0;
    32c4:	4501                	li	a0,0
    32c6:	8082                	ret
    return ERR_USART(USART_ERROR_MODE);
    32c8:	81020537          	lui	a0,0x81020
    32cc:	08650513          	addi	a0,a0,134 # 81020086 <__heap_end+0x60ff0086>
    32d0:	8082                	ret
    USART_NULL_PARAM_CHK(handle);
    32d2:	81020537          	lui	a0,0x81020
    32d6:	08450513          	addi	a0,a0,132 # 81020084 <__heap_end+0x60ff0084>
}
    32da:	8082                	ret

000032dc <drv_usi_usart_config_parity>:
    USART_NULL_PARAM_CHK(handle);
    32dc:	c539                	beqz	a0,332a <drv_usi_usart_config_parity+0x4e>
    wj_usi_reg_t *addr = (wj_usi_reg_t *)(usart_priv->base);
    32de:	411c                	lw	a5,0(a0)
    switch (parity) {
    32e0:	4705                	li	a4,1
    addr->USI_EN = 0x0;
    32e2:	0007a023          	sw	zero,0(a5)
    switch (parity) {
    32e6:	02e58763          	beq	a1,a4,3314 <drv_usi_usart_config_parity+0x38>
    32ea:	4709                	li	a4,2
    32ec:	00e58b63          	beq	a1,a4,3302 <drv_usi_usart_config_parity+0x26>
    32f0:	04059263          	bnez	a1,3334 <drv_usi_usart_config_parity+0x58>
            addr->USI_UART_CTRL &= ~CTRL_PARITY_ENABLE;
    32f4:	4f98                	lw	a4,24(a5)
    32f6:	9b3d                	andi	a4,a4,-17
            addr->USI_UART_CTRL |= CTRL_PARITY_EVEN;
    32f8:	cf98                	sw	a4,24(a5)
    addr->USI_EN = 0xf;
    32fa:	473d                	li	a4,15
    32fc:	c398                	sw	a4,0(a5)
    return 0;
    32fe:	4501                	li	a0,0
    3300:	8082                	ret
            addr->USI_UART_CTRL &= CTRL_PARITY_BITS;
    3302:	4f98                	lw	a4,24(a5)
    3304:	8b3d                	andi	a4,a4,15
    3306:	cf98                	sw	a4,24(a5)
            addr->USI_UART_CTRL |= CTRL_PARITY_ENABLE;
    3308:	4f98                	lw	a4,24(a5)
    330a:	01076713          	ori	a4,a4,16
    330e:	cf98                	sw	a4,24(a5)
            addr->USI_UART_CTRL |= CTRL_PARITY_ODD;
    3310:	4f98                	lw	a4,24(a5)
    3312:	b7dd                	j	32f8 <drv_usi_usart_config_parity+0x1c>
            addr->USI_UART_CTRL &= CTRL_PARITY_BITS;
    3314:	4f98                	lw	a4,24(a5)
    3316:	8b3d                	andi	a4,a4,15
    3318:	cf98                	sw	a4,24(a5)
            addr->USI_UART_CTRL |= CTRL_PARITY_ENABLE;
    331a:	4f98                	lw	a4,24(a5)
    331c:	01076713          	ori	a4,a4,16
    3320:	cf98                	sw	a4,24(a5)
            addr->USI_UART_CTRL |= CTRL_PARITY_EVEN;
    3322:	4f98                	lw	a4,24(a5)
    3324:	02076713          	ori	a4,a4,32
    3328:	bfc1                	j	32f8 <drv_usi_usart_config_parity+0x1c>
    USART_NULL_PARAM_CHK(handle);
    332a:	81020537          	lui	a0,0x81020
    332e:	08450513          	addi	a0,a0,132 # 81020084 <__heap_end+0x60ff0084>
    3332:	8082                	ret
    switch (parity) {
    3334:	81020537          	lui	a0,0x81020
    3338:	08950513          	addi	a0,a0,137 # 81020089 <__heap_end+0x60ff0089>
}
    333c:	8082                	ret

0000333e <drv_usi_usart_config_stopbits>:
    USART_NULL_PARAM_CHK(handle);
    333e:	c531                	beqz	a0,338a <drv_usi_usart_config_stopbits+0x4c>
    wj_usi_reg_t *addr = (wj_usi_reg_t *)(usart_priv->base);
    3340:	411c                	lw	a5,0(a0)
    switch (stopbit) {
    3342:	4705                	li	a4,1
    addr->USI_EN = 0x0;
    3344:	0007a023          	sw	zero,0(a5)
    switch (stopbit) {
    3348:	02e58963          	beq	a1,a4,337a <drv_usi_usart_config_stopbits+0x3c>
    334c:	4709                	li	a4,2
    334e:	00e58e63          	beq	a1,a4,336a <drv_usi_usart_config_stopbits+0x2c>
    3352:	04059163          	bnez	a1,3394 <drv_usi_usart_config_stopbits+0x56>
            addr->USI_UART_CTRL &= CTRL_STOP_BITS;
    3356:	4f98                	lw	a4,24(a5)
    3358:	03377713          	andi	a4,a4,51
    335c:	cf98                	sw	a4,24(a5)
            addr->USI_UART_CTRL |= CTRL_STOP_1;
    335e:	4f98                	lw	a4,24(a5)
            addr->USI_UART_CTRL |= CTRL_STOP_2;
    3360:	cf98                	sw	a4,24(a5)
    addr->USI_EN = 0xf;
    3362:	473d                	li	a4,15
    3364:	c398                	sw	a4,0(a5)
    return 0;
    3366:	4501                	li	a0,0
    3368:	8082                	ret
            addr->USI_UART_CTRL &= CTRL_STOP_BITS;
    336a:	4f98                	lw	a4,24(a5)
    336c:	03377713          	andi	a4,a4,51
    3370:	cf98                	sw	a4,24(a5)
            addr->USI_UART_CTRL |= CTRL_STOP_1_5;
    3372:	4f98                	lw	a4,24(a5)
    3374:	00476713          	ori	a4,a4,4
    3378:	b7e5                	j	3360 <drv_usi_usart_config_stopbits+0x22>
            addr->USI_UART_CTRL &= CTRL_STOP_BITS;
    337a:	4f98                	lw	a4,24(a5)
    337c:	03377713          	andi	a4,a4,51
    3380:	cf98                	sw	a4,24(a5)
            addr->USI_UART_CTRL |= CTRL_STOP_2;
    3382:	4f98                	lw	a4,24(a5)
    3384:	00876713          	ori	a4,a4,8
    3388:	bfe1                	j	3360 <drv_usi_usart_config_stopbits+0x22>
    USART_NULL_PARAM_CHK(handle);
    338a:	81020537          	lui	a0,0x81020
    338e:	08450513          	addi	a0,a0,132 # 81020084 <__heap_end+0x60ff0084>
    3392:	8082                	ret
    switch (stopbit) {
    3394:	81020537          	lui	a0,0x81020
    3398:	08a50513          	addi	a0,a0,138 # 8102008a <__heap_end+0x60ff008a>
}
    339c:	8082                	ret

0000339e <drv_usi_usart_config_databits>:
    USART_NULL_PARAM_CHK(handle);
    339e:	c52d                	beqz	a0,3408 <drv_usi_usart_config_databits+0x6a>
    wj_usi_reg_t *addr = (wj_usi_reg_t *)(usart_priv->base);
    33a0:	411c                	lw	a5,0(a0)
    switch (databits) {
    33a2:	4709                	li	a4,2
    addr->USI_EN = 0x0;
    33a4:	0007a023          	sw	zero,0(a5)
    switch (databits) {
    33a8:	04e58063          	beq	a1,a4,33e8 <drv_usi_usart_config_databits+0x4a>
    33ac:	00b76e63          	bltu	a4,a1,33c8 <drv_usi_usart_config_databits+0x2a>
    33b0:	02059463          	bnez	a1,33d8 <drv_usi_usart_config_databits+0x3a>
            addr->USI_UART_CTRL &= CTRL_DBIT_BITS;
    33b4:	4f98                	lw	a4,24(a5)
    33b6:	03c77713          	andi	a4,a4,60
    33ba:	cf98                	sw	a4,24(a5)
            addr->USI_UART_CTRL |= CTRL_DBIT_5;
    33bc:	4f98                	lw	a4,24(a5)
            addr->USI_UART_CTRL |= CTRL_DBIT_8;
    33be:	cf98                	sw	a4,24(a5)
    addr->USI_EN = 0xf;
    33c0:	473d                	li	a4,15
    33c2:	c398                	sw	a4,0(a5)
    return 0;
    33c4:	4501                	li	a0,0
    33c6:	8082                	ret
    switch (databits) {
    33c8:	470d                	li	a4,3
    33ca:	02e58763          	beq	a1,a4,33f8 <drv_usi_usart_config_databits+0x5a>
    33ce:	81020537          	lui	a0,0x81020
    33d2:	08850513          	addi	a0,a0,136 # 81020088 <__heap_end+0x60ff0088>
    33d6:	8082                	ret
            addr->USI_UART_CTRL &= CTRL_DBIT_BITS;
    33d8:	4f98                	lw	a4,24(a5)
    33da:	03c77713          	andi	a4,a4,60
    33de:	cf98                	sw	a4,24(a5)
            addr->USI_UART_CTRL |= CTRL_DBIT_6;
    33e0:	4f98                	lw	a4,24(a5)
    33e2:	00176713          	ori	a4,a4,1
    33e6:	bfe1                	j	33be <drv_usi_usart_config_databits+0x20>
            addr->USI_UART_CTRL &= CTRL_DBIT_BITS;
    33e8:	4f98                	lw	a4,24(a5)
    33ea:	03c77713          	andi	a4,a4,60
    33ee:	cf98                	sw	a4,24(a5)
            addr->USI_UART_CTRL |= CTRL_DBIT_7;
    33f0:	4f98                	lw	a4,24(a5)
    33f2:	00276713          	ori	a4,a4,2
    33f6:	b7e1                	j	33be <drv_usi_usart_config_databits+0x20>
            addr->USI_UART_CTRL &= CTRL_DBIT_BITS;
    33f8:	4f98                	lw	a4,24(a5)
    33fa:	03c77713          	andi	a4,a4,60
    33fe:	cf98                	sw	a4,24(a5)
            addr->USI_UART_CTRL |= CTRL_DBIT_8;
    3400:	4f98                	lw	a4,24(a5)
    3402:	00376713          	ori	a4,a4,3
    3406:	bf65                	j	33be <drv_usi_usart_config_databits+0x20>
    USART_NULL_PARAM_CHK(handle);
    3408:	81020537          	lui	a0,0x81020
    340c:	08450513          	addi	a0,a0,132 # 81020084 <__heap_end+0x60ff0084>
}
    3410:	8082                	ret

00003412 <wj_usi_usart_irqhandler>:
    }
}

void wj_usi_usart_irqhandler(int idx)
{
    wj_usi_usart_priv_t *usart_priv = &usi_usart_instance[idx];
    3412:	03800793          	li	a5,56
    3416:	02f507b3          	mul	a5,a0,a5
    341a:	200026b7          	lui	a3,0x20002
    341e:	8a868713          	addi	a4,a3,-1880 # 200018a8 <usi_usart_instance>
{
    3422:	1101                	addi	sp,sp,-32
    3424:	ca26                	sw	s1,20(sp)
    3426:	8a868693          	addi	a3,a3,-1880
    342a:	cc22                	sw	s0,24(sp)
    342c:	ce06                	sw	ra,28(sp)
    342e:	c036                	sw	a3,0(sp)
    3430:	842a                	mv	s0,a0
    wj_usi_usart_priv_t *usart_priv = &usi_usart_instance[idx];
    3432:	97ba                	add	a5,a5,a4
    wj_usi_reg_t *addr = (wj_usi_reg_t *)(usart_priv->base);
    3434:	4398                	lw	a4,0(a5)

    uint32_t intr_state = addr->USI_INTR_STA & 0x3ffff;
    3436:	4b64                	lw	s1,84(a4)
    3438:	00e49613          	slli	a2,s1,0xe
    343c:	8239                	srli	a2,a2,0xe
    343e:	c232                	sw	a2,4(sp)

    if (intr_state & USI_INT_TX_EMPTY) {
    3440:	0024f613          	andi	a2,s1,2
    3444:	c229                	beqz	a2,3486 <wj_usi_usart_irqhandler+0x74>
    if (usart_priv->tx_total_num == 0) {
    3446:	4b94                	lw	a3,16(a5)
    3448:	ce8d                	beqz	a3,3482 <wj_usi_usart_irqhandler+0x70>
    if (usart_priv->tx_cnt >= usart_priv->tx_total_num) {
    344a:	5390                	lw	a2,32(a5)
    344c:	0cd66363          	bltu	a2,a3,3512 <wj_usi_usart_irqhandler+0x100>
        addr->USI_INTR_EN &= (~USI_INT_TX_EMPTY);
    3450:	4b30                	lw	a2,80(a4)
    3452:	9a75                	andi	a2,a2,-3
    3454:	cb30                	sw	a2,80(a4)
        addr->USI_INTR_EN |= USI_INT_UART_STOP;
    3456:	4b30                	lw	a2,80(a4)
    3458:	40066613          	ori	a2,a2,1024
    345c:	cb30                	sw	a2,80(a4)
        usart_priv->last_tx_num = usart_priv->tx_total_num;
    345e:	d7d4                	sw	a3,44(a5)
        if (usart_priv->cb_event) {
    3460:	4794                	lw	a3,8(a5)
        usart_priv->tx_cnt = 0;
    3462:	0207a023          	sw	zero,32(a5)
        usart_priv->tx_busy = 0;
    3466:	0207a223          	sw	zero,36(a5)
        usart_priv->tx_buf = NULL;
    346a:	0007ac23          	sw	zero,24(a5)
        usart_priv->tx_total_num = 0;
    346e:	0007a823          	sw	zero,16(a5)
        if (usart_priv->cb_event) {
    3472:	ca81                	beqz	a3,3482 <wj_usi_usart_irqhandler+0x70>
            usart_priv->cb_event(usart_priv->idx, USART_EVENT_SEND_COMPLETE);
    3474:	5bc8                	lw	a0,52(a5)
    3476:	4581                	li	a1,0
    3478:	c63a                	sw	a4,12(sp)
    347a:	c43e                	sw	a5,8(sp)
    347c:	9682                	jalr	a3
    347e:	47a2                	lw	a5,8(sp)
    3480:	4732                	lw	a4,12(sp)
        ck_usart_intr_threshold_empty(usart_priv);
        addr->USI_INTR_CLR = USI_INT_TX_EMPTY;
    3482:	4689                	li	a3,2
    3484:	d334                	sw	a3,96(a4)
    }

    if (intr_state & USI_INT_RX_THOLD) {
    3486:	0204f693          	andi	a3,s1,32
    348a:	ca91                	beqz	a3,349e <wj_usi_usart_irqhandler+0x8c>
        ck_usart_intr_recv_data(usart_priv);
    348c:	853e                	mv	a0,a5
    348e:	c63a                	sw	a4,12(sp)
    3490:	c43e                	sw	a5,8(sp)
    3492:	3341                	jal	3212 <ck_usart_intr_recv_data>
        addr->USI_INTR_CLR = USI_INT_RX_THOLD;
    3494:	4732                	lw	a4,12(sp)
    3496:	47a2                	lw	a5,8(sp)
    3498:	02000693          	li	a3,32
    349c:	d334                	sw	a3,96(a4)
    }

    if (intr_state & USI_INT_UART_STOP) {
    349e:	4004f693          	andi	a3,s1,1024
    34a2:	c695                	beqz	a3,34ce <wj_usi_usart_irqhandler+0xbc>
        if (USI_FIFO_STA_RX_NUM(addr) > 0) {
    34a4:	4754                	lw	a3,12(a4)
    34a6:	82c1                	srli	a3,a3,0x10
    34a8:	8afd                	andi	a3,a3,31
    34aa:	ce99                	beqz	a3,34c8 <wj_usi_usart_irqhandler+0xb6>
    if ((usart_priv->rx_total_num != 0) && (usart_priv->rx_buf != NULL)) {
    34ac:	03800693          	li	a3,56
    34b0:	02d406b3          	mul	a3,s0,a3
    34b4:	4602                	lw	a2,0(sp)
    34b6:	96b2                	add	a3,a3,a2
    34b8:	46d0                	lw	a2,12(a3)
    34ba:	ce51                	beqz	a2,3556 <wj_usi_usart_irqhandler+0x144>
    34bc:	4ad4                	lw	a3,20(a3)
    34be:	cec1                	beqz	a3,3556 <wj_usi_usart_irqhandler+0x144>
        ck_usart_intr_recv_data(usart_priv);
    34c0:	853e                	mv	a0,a5
    34c2:	c43a                	sw	a4,8(sp)
    34c4:	33b9                	jal	3212 <ck_usart_intr_recv_data>
        return;
    34c6:	4722                	lw	a4,8(sp)
            ck_usart_intr_char_timeout(usart_priv);     //receive small data
        }

        addr->USI_INTR_CLR = USI_INT_RX_THOLD;
    34c8:	02000793          	li	a5,32
    34cc:	d33c                	sw	a5,96(a4)
    }

    if (intr_state & USI_INT_UART_PERR) {
    34ce:	80ad                	srli	s1,s1,0xb
    34d0:	8885                	andi	s1,s1,1
    34d2:	c88d                	beqz	s1,3504 <wj_usi_usart_irqhandler+0xf2>
    wj_usi_reg_t *addr = (wj_usi_reg_t *)(usart_priv->base);
    34d4:	03800513          	li	a0,56
    34d8:	02a40433          	mul	s0,s0,a0
    34dc:	4782                	lw	a5,0(sp)
    34de:	943e                	add	s0,s0,a5
    34e0:	401c                	lw	a5,0(s0)
    addr->USI_EN &= ~USI_RX_FIFO_EN;
    34e2:	4394                	lw	a3,0(a5)
    34e4:	9add                	andi	a3,a3,-9
    34e6:	c394                	sw	a3,0(a5)
    addr->USI_EN |= USI_RX_FIFO_EN;
    34e8:	4394                	lw	a3,0(a5)
    34ea:	0086e693          	ori	a3,a3,8
    34ee:	c394                	sw	a3,0(a5)
    if (usart_priv->cb_event) {
    34f0:	441c                	lw	a5,8(s0)
    34f2:	c791                	beqz	a5,34fe <wj_usi_usart_irqhandler+0xec>
        usart_priv->cb_event(usart_priv->idx, USART_EVENT_RX_PARITY_ERROR);
    34f4:	5848                	lw	a0,52(s0)
    34f6:	45a5                	li	a1,9
    34f8:	c03a                	sw	a4,0(sp)
    34fa:	9782                	jalr	a5
    34fc:	4702                	lw	a4,0(sp)
        ck_usart_intr_recv_line(usart_priv);
        addr->USI_INTR_CLR = USI_INT_RX_THOLD;
    34fe:	02000793          	li	a5,32
    3502:	d33c                	sw	a5,96(a4)
    }

    addr->USI_INTR_CLR = intr_state;
    3504:	4792                	lw	a5,4(sp)
}
    3506:	40f2                	lw	ra,28(sp)
    3508:	4462                	lw	s0,24(sp)
    addr->USI_INTR_CLR = intr_state;
    350a:	d33c                	sw	a5,96(a4)
}
    350c:	44d2                	lw	s1,20(sp)
    350e:	6105                	addi	sp,sp,32
    3510:	8082                	ret
        uint32_t remain_txdata  = usart_priv->tx_total_num - usart_priv->tx_cnt;
    3512:	538c                	lw	a1,32(a5)
    3514:	40b685b3          	sub	a1,a3,a1
        uint32_t txdata_num = (remain_txdata > (USI_TX_MAX_FIFO - 1)) ? (USI_TX_MAX_FIFO - 1) : remain_txdata;
    3518:	46bd                	li	a3,15
    351a:	00b6f363          	bgeu	a3,a1,3520 <wj_usi_usart_irqhandler+0x10e>
    351e:	45bd                	li	a1,15
            addr->USI_TX_RX_FIFO = *((uint8_t *)usart_priv->tx_buf);
    3520:	03800693          	li	a3,56
    3524:	02d406b3          	mul	a3,s0,a3
    3528:	4602                	lw	a2,0(sp)
        volatile uint32_t i = 0u;
    352a:	c802                	sw	zero,16(sp)
        for (i = 0; i < txdata_num; i++) {
    352c:	c802                	sw	zero,16(sp)
            addr->USI_TX_RX_FIFO = *((uint8_t *)usart_priv->tx_buf);
    352e:	96b2                	add	a3,a3,a2
        for (i = 0; i < txdata_num; i++) {
    3530:	4642                	lw	a2,16(sp)
    3532:	00b66563          	bltu	a2,a1,353c <wj_usi_usart_irqhandler+0x12a>
        addr->USI_INTR_CLR = USI_INT_TX_EMPTY;
    3536:	4689                	li	a3,2
    3538:	d334                	sw	a3,96(a4)
    353a:	b7a1                	j	3482 <wj_usi_usart_irqhandler+0x70>
            addr->USI_TX_RX_FIFO = *((uint8_t *)usart_priv->tx_buf);
    353c:	4e90                	lw	a2,24(a3)
    353e:	00064503          	lbu	a0,0(a2)
            usart_priv->tx_buf++;
    3542:	0605                	addi	a2,a2,1
            addr->USI_TX_RX_FIFO = *((uint8_t *)usart_priv->tx_buf);
    3544:	c708                	sw	a0,8(a4)
            usart_priv->tx_cnt++;
    3546:	5288                	lw	a0,32(a3)
            usart_priv->tx_buf++;
    3548:	ce90                	sw	a2,24(a3)
            usart_priv->tx_cnt++;
    354a:	0505                	addi	a0,a0,1
    354c:	d288                	sw	a0,32(a3)
        for (i = 0; i < txdata_num; i++) {
    354e:	4642                	lw	a2,16(sp)
    3550:	0605                	addi	a2,a2,1
    3552:	c832                	sw	a2,16(sp)
    3554:	bff1                	j	3530 <wj_usi_usart_irqhandler+0x11e>
    if (usart_priv->cb_event) {
    3556:	03800793          	li	a5,56
    355a:	02f407b3          	mul	a5,s0,a5
    355e:	4682                	lw	a3,0(sp)
    3560:	97b6                	add	a5,a5,a3
    3562:	4794                	lw	a3,8(a5)
    3564:	c691                	beqz	a3,3570 <wj_usi_usart_irqhandler+0x15e>
        usart_priv->cb_event(usart_priv->idx, USART_EVENT_RECEIVED);
    3566:	5bc8                	lw	a0,52(a5)
    3568:	45b9                	li	a1,14
    356a:	c43a                	sw	a4,8(sp)
    356c:	9682                	jalr	a3
    356e:	bfa1                	j	34c6 <wj_usi_usart_irqhandler+0xb4>
        wj_usi_reg_t *addr = (wj_usi_reg_t *)(usart_priv->base);
    3570:	439c                	lw	a5,0(a5)
        addr->USI_EN &= ~USI_RX_FIFO_EN;
    3572:	4394                	lw	a3,0(a5)
    3574:	9add                	andi	a3,a3,-9
    3576:	c394                	sw	a3,0(a5)
        addr->USI_EN |= USI_RX_FIFO_EN;
    3578:	4394                	lw	a3,0(a5)
    357a:	0086e693          	ori	a3,a3,8
    357e:	c394                	sw	a3,0(a5)
    3580:	b7a1                	j	34c8 <wj_usi_usart_irqhandler+0xb6>

00003582 <drv_usi_usart_putchar>:
  \return      error code
*/
int32_t drv_usi_usart_putchar(usart_handle_t handle, uint8_t ch)
{
    wj_usi_usart_priv_t *usart_priv = handle;
    wj_usi_reg_t *addr = (wj_usi_reg_t *)(usart_priv->base);
    3582:	4118                	lw	a4,0(a0)
    //addr->USI_EN = 0xb;
    //addr->USI_EN = 0xf;
    addr->USI_TX_RX_FIFO = ch;
    3584:	c70c                	sw	a1,8(a4)

    while (!(addr->USI_FIFO_STA & 0x1));
    3586:	475c                	lw	a5,12(a4)
    3588:	8b85                	andi	a5,a5,1
    358a:	dff5                	beqz	a5,3586 <drv_usi_usart_putchar+0x4>

    return 0;
}
    358c:	4501                	li	a0,0
    358e:	8082                	ret

00003590 <drv_usi_usart_initialize>:
  \param[in]   idx usart index
  \param[in]   cb_event event call back function \ref usart_event_cb_t
  \return      return usart handle if success
*/
usart_handle_t drv_usi_usart_initialize(int32_t idx, usart_event_cb_t cb_event)
{
    3590:	1111                	addi	sp,sp,-28
    3592:	c02e                	sw	a1,0(sp)
    //initialize instace
    uint32_t base;
    uint32_t irq;
    void *handler;

    int32_t ret  = target_usi_usart_init(idx, &base, &irq, &handler);
    3594:	0074                	addi	a3,sp,12
    3596:	0030                	addi	a2,sp,8
    3598:	004c                	addi	a1,sp,4
{
    359a:	c826                	sw	s1,16(sp)
    359c:	cc06                	sw	ra,24(sp)
    359e:	ca22                	sw	s0,20(sp)
    35a0:	84aa                	mv	s1,a0
    int32_t ret  = target_usi_usart_init(idx, &base, &irq, &handler);
    35a2:	22a9                	jal	36ec <target_usi_usart_init>

    if (ret < 0 || ret >= CONFIG_USI_NUM) {
    35a4:	4709                	li	a4,2
    35a6:	00a77963          	bgeu	a4,a0,35b8 <drv_usi_usart_initialize+0x28>
        return NULL;
    35aa:	4401                	li	s0,0
    addr->USI_MODE_SEL = USI_MODE_UART;
    drv_irq_register(usart_priv->irq, handler);
    drv_irq_enable(usart_priv->irq);

    return usart_priv;
}
    35ac:	40e2                	lw	ra,24(sp)
    35ae:	8522                	mv	a0,s0
    35b0:	4452                	lw	s0,20(sp)
    35b2:	44c2                	lw	s1,16(sp)
    35b4:	0171                	addi	sp,sp,28
    35b6:	8082                	ret
    ret = drv_usi_initialize(idx);
    35b8:	8526                	mv	a0,s1
    35ba:	f50ff0ef          	jal	ra,2d0a <drv_usi_initialize>
    if (ret < 0) {
    35be:	fe0546e3          	bltz	a0,35aa <drv_usi_usart_initialize+0x1a>
    wj_usi_usart_priv_t *usart_priv = &usi_usart_instance[idx];
    35c2:	03800413          	li	s0,56
    35c6:	02848733          	mul	a4,s1,s0
    usart_priv->irq = irq;
    35ca:	47a2                	lw	a5,8(sp)
    wj_usi_usart_priv_t *usart_priv = &usi_usart_instance[idx];
    35cc:	20002437          	lui	s0,0x20002
    35d0:	8a840413          	addi	s0,s0,-1880 # 200018a8 <usi_usart_instance>
    usart_priv->base = base;
    35d4:	4512                	lw	a0,4(sp)
    wj_usi_set_rxfifo_th(addr, USI_RX_MAX_FIFO);
    35d6:	45c1                	li	a1,16
    wj_usi_usart_priv_t *usart_priv = &usi_usart_instance[idx];
    35d8:	943a                	add	s0,s0,a4
    usart_priv->irq = irq;
    35da:	c05c                	sw	a5,4(s0)
    usart_priv->cb_event = cb_event;
    35dc:	4782                	lw	a5,0(sp)
    usart_priv->base = base;
    35de:	c008                	sw	a0,0(s0)
    usart_priv->idx = idx;
    35e0:	d844                	sw	s1,52(s0)
    usart_priv->cb_event = cb_event;
    35e2:	c41c                	sw	a5,8(s0)
    addr->USI_INTR_UNMASK = WJ_UART_INT_ENABLE_DEFAUL;
    35e4:	6785                	lui	a5,0x1
    35e6:	f9878793          	addi	a5,a5,-104 # f98 <__divdf3+0xee>
    addr->USI_EN = 0x0;
    35ea:	00052023          	sw	zero,0(a0)
    addr->USI_INTR_UNMASK = WJ_UART_INT_ENABLE_DEFAUL;
    35ee:	cd7c                	sw	a5,92(a0)
    addr->USI_INTR_EN = WJ_UART_INT_ENABLE_DEFAUL;
    35f0:	c93c                	sw	a5,80(a0)
    wj_usi_set_rxfifo_th(addr, USI_RX_MAX_FIFO);
    35f2:	c02a                	sw	a0,0(sp)
    35f4:	e9cff0ef          	jal	ra,2c90 <wj_usi_set_rxfifo_th>
    addr->USI_MODE_SEL = USI_MODE_UART;
    35f8:	4502                	lw	a0,0(sp)
    drv_irq_register(usart_priv->irq, handler);
    35fa:	45b2                	lw	a1,12(sp)
    addr->USI_MODE_SEL = USI_MODE_UART;
    35fc:	00052223          	sw	zero,4(a0)
    drv_irq_register(usart_priv->irq, handler);
    3600:	4048                	lw	a0,4(s0)
    3602:	e7eff0ef          	jal	ra,2c80 <drv_irq_register>
    drv_irq_enable(usart_priv->irq);
    3606:	4048                	lw	a0,4(s0)
    3608:	e5cff0ef          	jal	ra,2c64 <drv_irq_enable>
    return usart_priv;
    360c:	b745                	j	35ac <drv_usi_usart_initialize+0x1c>

0000360e <drv_usi_usart_config>:
                             uint32_t baud,
                             usart_mode_e mode,
                             usart_parity_e parity,
                             usart_stop_bits_e stopbits,
                             usart_data_bits_e bits)
{
    360e:	1111                	addi	sp,sp,-28
    3610:	c826                	sw	s1,16(sp)
    int32_t ret;
    wj_usi_usart_priv_t *usart_priv = handle;
    wj_usi_reg_t *addr = (wj_usi_reg_t *)(usart_priv->base);
    3612:	4104                	lw	s1,0(a0)
{
    3614:	ca22                	sw	s0,20(sp)
    3616:	cc06                	sw	ra,24(sp)

    addr->USI_EN = 0x0;
    3618:	0004a023          	sw	zero,0(s1)
{
    361c:	842a                	mv	s0,a0
    361e:	c032                	sw	a2,0(sp)
    3620:	c636                	sw	a3,12(sp)
    3622:	c23a                	sw	a4,4(sp)
    3624:	c43e                	sw	a5,8(sp)
    /* control the data_bit of the usart*/
    ret = drv_usi_usart_config_baudrate(handle, baud);
    3626:	31b1                	jal	3272 <drv_usi_usart_config_baudrate>

